ARM GAS  C:\Users\JANUSD~1\AppData\Local\Temp\ccYzo0m7.s 			page 1


   1              		.syntax unified
   2              		.cpu cortex-m0
   3              		.fpu softvfp
   4              		.eabi_attribute 20, 1
   5              		.eabi_attribute 21, 1
   6              		.eabi_attribute 23, 3
   7              		.eabi_attribute 24, 1
   8              		.eabi_attribute 25, 1
   9              		.eabi_attribute 26, 1
  10              		.eabi_attribute 30, 1
  11              		.eabi_attribute 34, 0
  12              		.eabi_attribute 18, 4
  13              		.thumb
  14              		.syntax unified
  15              		.file	"aios.c"
  16              		.text
  17              	.Ltext0:
  18              		.cfi_sections	.debug_frame
  19              		.section	.text.AiosInit,"ax",%progbits
  20              		.align	2
  21              		.global	AiosInit
  22              		.code	16
  23              		.thumb_func
  24              		.type	AiosInit, %function
  25              	AiosInit:
  26              	.LFB36:
  27              		.file 1 "aios.c"
   1:aios.c        **** /*******************************************************************************
   2:aios.c        **** * File Name: aios.c
   3:aios.c        **** *
   4:aios.c        **** * Version 1.10
   5:aios.c        **** *
   6:aios.c        **** * Description:
   7:aios.c        **** *  This file contains AIO service related code.
   8:aios.c        **** *
   9:aios.c        **** * Hardware Dependency:
  10:aios.c        **** *  CY8CKIT-042 BLE
  11:aios.c        **** *
  12:aios.c        **** ********************************************************************************
  13:aios.c        **** * Copyright 2018, Cypress Semiconductor Corporation.  All rights reserved.
  14:aios.c        **** * You may use this file only in accordance with the license, terms, conditions,
  15:aios.c        **** * disclaimers, and limitations in the end user license agreement accompanying
  16:aios.c        **** * the software package with which this file was provided.
  17:aios.c        **** *******************************************************************************/
  18:aios.c        **** 
  19:aios.c        **** #include "aios.h"
  20:aios.c        **** #include "debug.h"
  21:aios.c        **** 
  22:aios.c        **** /******************************************************************************
  23:aios.c        **** * Function Name: AiosInit
  24:aios.c        **** *******************************************************************************
  25:aios.c        **** *
  26:aios.c        **** * Summary:
  27:aios.c        **** *    Registers the AIOS CallBack.
  28:aios.c        **** *
  29:aios.c        **** ******************************************************************************/
  30:aios.c        **** void AiosInit(void)
ARM GAS  C:\Users\JANUSD~1\AppData\Local\Temp\ccYzo0m7.s 			page 2


  31:aios.c        **** {
  28              		.loc 1 31 0
  29              		.cfi_startproc
  30              		@ args = 0, pretend = 0, frame = 0
  31              		@ frame_needed = 0, uses_anonymous_args = 0
  32 0000 10B5     		push	{r4, lr}
  33              		.cfi_def_cfa_offset 8
  34              		.cfi_offset 4, -8
  35              		.cfi_offset 14, -4
  32:aios.c        ****     CyBle_AiosRegisterAttrCallback(AiosCallBack);
  36              		.loc 1 32 0
  37 0002 0248     		ldr	r0, .L2
  38 0004 FFF7FEFF 		bl	CyBle_AiosRegisterAttrCallback
  39              	.LVL0:
  33:aios.c        **** }
  40              		.loc 1 33 0
  41              		@ sp needed
  42 0008 10BD     		pop	{r4, pc}
  43              	.L3:
  44 000a C046     		.align	2
  45              	.L2:
  46 000c 00000000 		.word	AiosCallBack
  47              		.cfi_endproc
  48              	.LFE36:
  49              		.size	AiosInit, .-AiosInit
  50              		.section	.text.PrintCharacteristic,"ax",%progbits
  51              		.align	2
  52              		.global	PrintCharacteristic
  53              		.code	16
  54              		.thumb_func
  55              		.type	PrintCharacteristic, %function
  56              	PrintCharacteristic:
  57              	.LFB38:
  34:aios.c        **** 
  35:aios.c        **** /*******************************************************************************
  36:aios.c        **** * Function Name: AiosCallBack()
  37:aios.c        **** ********************************************************************************
  38:aios.c        **** *
  39:aios.c        **** * Summary:
  40:aios.c        **** *   This is an event callback function to receive service specific events from
  41:aios.c        **** *   Autonation IO Service.
  42:aios.c        **** *
  43:aios.c        **** * Parameters:
  44:aios.c        **** *  event - the event code
  45:aios.c        **** *  *eventParam - the event parameters
  46:aios.c        **** *
  47:aios.c        **** * Return:
  48:aios.c        **** *  None.
  49:aios.c        **** *
  50:aios.c        **** ********************************************************************************/
  51:aios.c        **** void AiosCallBack(uint32 event, void* eventParam)
  52:aios.c        **** {
  53:aios.c        ****     CYBLE_AIOS_CHAR_VALUE_T *locCharValue;
  54:aios.c        ****     CYBLE_AIOS_DESCR_VALUE_T *locDescrValue;
  55:aios.c        ****     uint8 i, ledValue;
  56:aios.c        ****     
  57:aios.c        ****     if(0u != eventParam)
ARM GAS  C:\Users\JANUSD~1\AppData\Local\Temp\ccYzo0m7.s 			page 3


  58:aios.c        ****     {
  59:aios.c        ****         /* This dummy operation is to avoid warning about unused eventParam */
  60:aios.c        ****     }
  61:aios.c        **** 
  62:aios.c        ****     switch(event)
  63:aios.c        ****     {
  64:aios.c        ****     case CYBLE_EVT_AIOSS_NOTIFICATION_ENABLED:
  65:aios.c        ****         DBG_PRINTF("CYBLE_EVT_AIOSS_NOTIFICATION_ENABLED: ");
  66:aios.c        ****         PrintCharacteristic(((CYBLE_AIOS_CHAR_VALUE_T *) eventParam)->charIndex);
  67:aios.c        ****         DBG_PRINTF(" characteristic, instance: %d",((CYBLE_AIOS_CHAR_VALUE_T *) eventParam)->charIn
  68:aios.c        ****         DBG_PRINTF(" notification is Enabled \r\n");
  69:aios.c        ****         break;
  70:aios.c        ****                 
  71:aios.c        ****     case CYBLE_EVT_AIOSS_NOTIFICATION_DISABLED:
  72:aios.c        ****         DBG_PRINTF("CYBLE_EVT_AIOSS_NOTIFICATION_DISABLED: ");
  73:aios.c        ****         PrintCharacteristic(((CYBLE_AIOS_CHAR_VALUE_T *)eventParam)->charIndex);
  74:aios.c        ****         DBG_PRINTF(" characteristic, instance: %d",((CYBLE_AIOS_CHAR_VALUE_T *) eventParam)->charIn
  75:aios.c        ****         DBG_PRINTF(" notification is Disabled \r\n");
  76:aios.c        ****         break;
  77:aios.c        **** 
  78:aios.c        ****     case CYBLE_EVT_AIOSS_INDICATION_ENABLED:
  79:aios.c        ****         DBG_PRINTF("CYBLE_EVT_AIOSS_INDICATION_ENABLED: ");
  80:aios.c        ****         PrintCharacteristic(((CYBLE_AIOS_CHAR_VALUE_T *) eventParam)->charIndex);
  81:aios.c        ****         DBG_PRINTF(" characteristic, instance: %d",((CYBLE_AIOS_CHAR_VALUE_T *) eventParam)->charIn
  82:aios.c        ****         DBG_PRINTF(" indication is Enabled \r\n");
  83:aios.c        ****         if ((((CYBLE_AIOS_CHAR_VALUE_T *) eventParam)->charIndex == CYBLE_AIOS_ANALOG)
  84:aios.c        ****         && (((CYBLE_AIOS_CHAR_VALUE_T *) eventParam)->charInstance == INSTANCE_ADC)){
  85:aios.c        ****             ledValue = LED_D_Read();
  86:aios.c        ****             ledValue |= 1; //&= ~ledMask[i];
  87:aios.c        ****             ledValue |= 2; //&= ~ledMask[i];
  88:aios.c        ****             LED_D_Write(ledValue);
  89:aios.c        ****             CyDelay(400);
  90:aios.c        ****             ledValue &= ~2; //&= ~ledMask[i];
  91:aios.c        ****             LED_D_Write(ledValue);
  92:aios.c        ****         }
  93:aios.c        ****         
  94:aios.c        ****         break;
  95:aios.c        ****         
  96:aios.c        ****     case CYBLE_EVT_AIOSS_INDICATION_DISABLED:
  97:aios.c        ****         DBG_PRINTF("CYBLE_EVT_AIOSS_INDICATION_DISABLED: ");
  98:aios.c        ****         PrintCharacteristic(((CYBLE_AIOS_CHAR_VALUE_T *)eventParam)->charIndex);
  99:aios.c        ****         DBG_PRINTF(" characteristic, instance: %d",((CYBLE_AIOS_CHAR_VALUE_T *) eventParam)->charIn
 100:aios.c        ****         DBG_PRINTF(" indication is Disabled \r\n");
 101:aios.c        ****         if ((((CYBLE_AIOS_CHAR_VALUE_T *) eventParam)->charIndex == CYBLE_AIOS_ANALOG)
 102:aios.c        ****         && (((CYBLE_AIOS_CHAR_VALUE_T *) eventParam)->charInstance == INSTANCE_ADC)){
 103:aios.c        ****             ledValue = LED_D_Read();
 104:aios.c        ****             ledValue &= ~1; //&= ~ledMask[i];
 105:aios.c        ****             LED_D_Write(ledValue);
 106:aios.c        ****         }
 107:aios.c        ****         break;
 108:aios.c        ****     
 109:aios.c        ****     case CYBLE_EVT_AIOSS_INDICATION_CONFIRMED:
 110:aios.c        ****         DBG_PRINTF("CYBLE_EVT_AIOSS_INDICATION_CONFIRMED: ");
 111:aios.c        ****         PrintCharacteristic(((CYBLE_AIOS_CHAR_VALUE_T *)eventParam)->charIndex);
 112:aios.c        ****         DBG_PRINTF(" characteristic, instance: %d",((CYBLE_AIOS_CHAR_VALUE_T *) eventParam)->charIn
 113:aios.c        ****         DBG_PRINTF(" indication is Confirmed \r\n");
 114:aios.c        ****         break;
ARM GAS  C:\Users\JANUSD~1\AppData\Local\Temp\ccYzo0m7.s 			page 4


 115:aios.c        **** 
 116:aios.c        ****     case CYBLE_EVT_AIOSS_CHAR_WRITE:
 117:aios.c        ****         locCharValue=eventParam;
 118:aios.c        ****         DBG_PRINTF("CYBLE_EVT_AIOSS_CHAR_WRITE charIndex - "); 
 119:aios.c        ****         PrintCharacteristic(locCharValue->charIndex);        
 120:aios.c        ****         DBG_PRINTF(", charInstance - %d, ", locCharValue->charInstance);
 121:aios.c        ****         DBG_PRINTF("value - %d (0x%2.2X)  len - %d\r\n",(locCharValue->value->len == 1) ? locCharVa
 122:aios.c        ****                                                     (locCharValue->value->len == 1) ? locCharValue-
 123:aios.c        ****                                                      locCharValue->value->len);
 124:aios.c        ****         break;
 125:aios.c        ****         
 126:aios.c        ****     case CYBLE_EVT_AIOSS_DESCR_WRITE:
 127:aios.c        ****         locDescrValue=eventParam;
 128:aios.c        ****         DBG_PRINTF("CYBLE_EVT_AIOSS_DESCR_WRITE charIndex - "); 
 129:aios.c        ****         PrintCharacteristic(locDescrValue->charIndex);        
 130:aios.c        ****         DBG_PRINTF(", charInstance -  %d,",locDescrValue->charInstance);
 131:aios.c        ****         DBG_PRINTF(" descrIndex - ");
 132:aios.c        ****         PrintDescriptor(locDescrValue->descrIndex);
 133:aios.c        ****         DBG_PRINTF(", ");
 134:aios.c        ****         
 135:aios.c        ****         if (locDescrValue->value->len <= 2)
 136:aios.c        ****         {
 137:aios.c        ****             DBG_PRINTF("value - %d (0x%2.2X)  ", (locDescrValue->value->len == 1) ? locDescrValue->
 138:aios.c        ****                                       (locDescrValue->value->len == 1) ? locDescrValue->value->val[
 139:aios.c        ****         }
 140:aios.c        ****         else
 141:aios.c        ****         {   
 142:aios.c        ****             DBG_PRINTF("value - ");
 143:aios.c        ****             for(i = 0; i < locDescrValue->value->len; i++)
 144:aios.c        ****             {
 145:aios.c        ****                 DBG_PRINTF("%2.2X ", locDescrValue->value->val[i]);
 146:aios.c        ****             }    
 147:aios.c        ****             DBG_PRINTF(" (");
 148:aios.c        ****             for(i = 0; i < locDescrValue->value->len; i++)
 149:aios.c        ****             {
 150:aios.c        ****                 DBG_PRINTF("%c", (locDescrValue->value->val[i] >= 0x20) ? locDescrValue->value->val
 151:aios.c        ****             }    
 152:aios.c        ****             DBG_PRINTF(")  ");
 153:aios.c        ****         }
 154:aios.c        ****         DBG_PRINTF("len - %d\r\n", locDescrValue->value->len);
 155:aios.c        ****         break;
 156:aios.c        ****         
 157:aios.c        ****     default:
 158:aios.c        ****         DBG_PRINTF("unknown AIOS event: 0x%lx \r\n", event);
 159:aios.c        ****         break;
 160:aios.c        ****     }
 161:aios.c        **** }
 162:aios.c        **** 
 163:aios.c        **** /*******************************************************************************
 164:aios.c        **** * Function Name: PrintCharacteristic
 165:aios.c        **** ********************************************************************************
 166:aios.c        **** *
 167:aios.c        **** * Summary:
 168:aios.c        **** *  Prints the characteristic name of Automation IO service.
 169:aios.c        **** *
 170:aios.c        **** * Parameters:  
 171:aios.c        **** *  charIndex: Characteristic index.
ARM GAS  C:\Users\JANUSD~1\AppData\Local\Temp\ccYzo0m7.s 			page 5


 172:aios.c        **** *
 173:aios.c        **** * Return: 
 174:aios.c        **** *  None
 175:aios.c        **** *
 176:aios.c        **** *******************************************************************************/
 177:aios.c        **** void PrintCharacteristic(CYBLE_AIOS_CHAR_INDEX_T charIndex)
 178:aios.c        **** {
  58              		.loc 1 178 0
  59              		.cfi_startproc
  60              		@ args = 0, pretend = 0, frame = 0
  61              		@ frame_needed = 0, uses_anonymous_args = 0
  62              	.LVL1:
  63 0000 10B5     		push	{r4, lr}
  64              		.cfi_def_cfa_offset 8
  65              		.cfi_offset 4, -8
  66              		.cfi_offset 14, -4
 179:aios.c        ****     switch(charIndex)
  67              		.loc 1 179 0
  68 0002 0128     		cmp	r0, #1
  69 0004 08D0     		beq	.L6
  70 0006 0028     		cmp	r0, #0
  71 0008 02D0     		beq	.L7
  72 000a 0228     		cmp	r0, #2
  73 000c 08D0     		beq	.L8
  74 000e 0AE0     		b	.L4
  75              	.L7:
 180:aios.c        ****     {
 181:aios.c        ****     case CYBLE_AIOS_DIGITAL:
 182:aios.c        ****         DBG_PRINTF("DIGITAL");
  76              		.loc 1 182 0
  77 0010 0548     		ldr	r0, .L9
  78              	.LVL2:
  79 0012 FFF7FEFF 		bl	printf
  80              	.LVL3:
 183:aios.c        ****         break;
  81              		.loc 1 183 0
  82 0016 06E0     		b	.L4
  83              	.LVL4:
  84              	.L6:
 184:aios.c        ****     case CYBLE_AIOS_ANALOG:
 185:aios.c        ****         DBG_PRINTF("ANALOG");
  85              		.loc 1 185 0
  86 0018 0448     		ldr	r0, .L9+4
  87              	.LVL5:
  88 001a FFF7FEFF 		bl	printf
  89              	.LVL6:
 186:aios.c        ****         break;
  90              		.loc 1 186 0
  91 001e 02E0     		b	.L4
  92              	.LVL7:
  93              	.L8:
 187:aios.c        ****     case CYBLE_AIOS_AGGREGATE:
 188:aios.c        ****         DBG_PRINTF("AGGREGATE");
  94              		.loc 1 188 0
  95 0020 0348     		ldr	r0, .L9+8
  96              	.LVL8:
  97 0022 FFF7FEFF 		bl	printf
ARM GAS  C:\Users\JANUSD~1\AppData\Local\Temp\ccYzo0m7.s 			page 6


  98              	.LVL9:
  99              	.L4:
 189:aios.c        ****         break;
 190:aios.c        ****     default:
 191:aios.c        ****         break;
 192:aios.c        ****     }
 193:aios.c        **** }
 100              		.loc 1 193 0
 101              		@ sp needed
 102 0026 10BD     		pop	{r4, pc}
 103              	.L10:
 104              		.align	2
 105              	.L9:
 106 0028 00000000 		.word	.LC1
 107 002c 08000000 		.word	.LC3
 108 0030 10000000 		.word	.LC5
 109              		.cfi_endproc
 110              	.LFE38:
 111              		.size	PrintCharacteristic, .-PrintCharacteristic
 112              		.section	.text.PrintDescriptor,"ax",%progbits
 113              		.align	2
 114              		.global	PrintDescriptor
 115              		.code	16
 116              		.thumb_func
 117              		.type	PrintDescriptor, %function
 118              	PrintDescriptor:
 119              	.LFB39:
 194:aios.c        **** 
 195:aios.c        **** 
 196:aios.c        **** /*******************************************************************************
 197:aios.c        **** * Function Name: PrintDescriptor
 198:aios.c        **** ********************************************************************************
 199:aios.c        **** *
 200:aios.c        **** * Summary:
 201:aios.c        **** *  Prints the characteristic descriptor name of Automation IO service.
 202:aios.c        **** *
 203:aios.c        **** * Parameters:  
 204:aios.c        **** *  descrIndex: Characteristic index.
 205:aios.c        **** *
 206:aios.c        **** * Return: 
 207:aios.c        **** *  None
 208:aios.c        **** *
 209:aios.c        **** *******************************************************************************/
 210:aios.c        **** void PrintDescriptor(CYBLE_AIOS_DESCR_INDEX_T descrIndex)
 211:aios.c        **** {
 120              		.loc 1 211 0
 121              		.cfi_startproc
 122              		@ args = 0, pretend = 0, frame = 0
 123              		@ frame_needed = 0, uses_anonymous_args = 0
 124              	.LVL10:
 125 0000 10B5     		push	{r4, lr}
 126              		.cfi_def_cfa_offset 8
 127              		.cfi_offset 4, -8
 128              		.cfi_offset 14, -4
 212:aios.c        ****     switch(descrIndex)
 129              		.loc 1 212 0
 130 0002 0628     		cmp	r0, #6
ARM GAS  C:\Users\JANUSD~1\AppData\Local\Temp\ccYzo0m7.s 			page 7


 131 0004 1ED8     		bhi	.L11
 132 0006 8000     		lsls	r0, r0, #2
 133              	.LVL11:
 134 0008 0F4B     		ldr	r3, .L21
 135 000a 1B58     		ldr	r3, [r3, r0]
 136 000c 9F46     		mov	pc, r3
 137              		.section	.rodata
 138              		.align	2
 139              	.L14:
 140 0000 0E000000 		.word	.L13
 141 0004 16000000 		.word	.L15
 142 0008 1E000000 		.word	.L16
 143 000c 26000000 		.word	.L17
 144 0010 2E000000 		.word	.L18
 145 0014 36000000 		.word	.L19
 146 0018 3E000000 		.word	.L20
 147              		.section	.text.PrintDescriptor
 148              	.L13:
 213:aios.c        ****     {
 214:aios.c        ****     case CYBLE_AIOS_CCCD:
 215:aios.c        ****         DBG_PRINTF("CCCD");
 149              		.loc 1 215 0
 150 000e 0F48     		ldr	r0, .L21+4
 151 0010 FFF7FEFF 		bl	printf
 152              	.LVL12:
 216:aios.c        ****         break;
 153              		.loc 1 216 0
 154 0014 16E0     		b	.L11
 155              	.L15:
 217:aios.c        ****     case CYBLE_AIOS_CHAR_PRESENTATION_FORMAT:
 218:aios.c        ****         DBG_PRINTF("CHAR_PRESENTATION_FORMAT");
 156              		.loc 1 218 0
 157 0016 0E48     		ldr	r0, .L21+8
 158 0018 FFF7FEFF 		bl	printf
 159              	.LVL13:
 219:aios.c        ****         break;
 160              		.loc 1 219 0
 161 001c 12E0     		b	.L11
 162              	.L16:
 220:aios.c        ****     case CYBLE_AIOS_CHAR_USER_DESCRIPTION_DESCR:
 221:aios.c        ****         DBG_PRINTF("CHAR_USER_DESCRIPTION_DESCR");
 163              		.loc 1 221 0
 164 001e 0D48     		ldr	r0, .L21+12
 165 0020 FFF7FEFF 		bl	printf
 166              	.LVL14:
 222:aios.c        ****         break;
 167              		.loc 1 222 0
 168 0024 0EE0     		b	.L11
 169              	.L17:
 223:aios.c        ****     case CYBLE_AIOS_CHAR_EXTENDED_PROPERTIES:
 224:aios.c        ****         DBG_PRINTF("CHAR_EXTENDED_PROPERTIES");
 170              		.loc 1 224 0
 171 0026 0C48     		ldr	r0, .L21+16
 172 0028 FFF7FEFF 		bl	printf
 173              	.LVL15:
 225:aios.c        ****         break;
 174              		.loc 1 225 0
ARM GAS  C:\Users\JANUSD~1\AppData\Local\Temp\ccYzo0m7.s 			page 8


 175 002c 0AE0     		b	.L11
 176              	.L18:
 226:aios.c        ****     case CYBLE_AIOS_VALUE_TRIGGER_SETTINGS:
 227:aios.c        ****         DBG_PRINTF("VALUE_TRIGGER_SETTINGS");
 177              		.loc 1 227 0
 178 002e 0B48     		ldr	r0, .L21+20
 179 0030 FFF7FEFF 		bl	printf
 180              	.LVL16:
 228:aios.c        ****         break;
 181              		.loc 1 228 0
 182 0034 06E0     		b	.L11
 183              	.L19:
 229:aios.c        ****     case CYBLE_AIOS_TIME_TRIGGER_SETTINGS:
 230:aios.c        ****         DBG_PRINTF("TIME_TRIGGER_SETTINGS");
 184              		.loc 1 230 0
 185 0036 0A48     		ldr	r0, .L21+24
 186 0038 FFF7FEFF 		bl	printf
 187              	.LVL17:
 231:aios.c        ****         break;
 188              		.loc 1 231 0
 189 003c 02E0     		b	.L11
 190              	.L20:
 232:aios.c        ****     case CYBLE_AIOS_VRD:
 233:aios.c        ****         DBG_PRINTF("VRD");
 191              		.loc 1 233 0
 192 003e 0948     		ldr	r0, .L21+28
 193 0040 FFF7FEFF 		bl	printf
 194              	.LVL18:
 195              	.L11:
 234:aios.c        ****         break;
 235:aios.c        ****     default:
 236:aios.c        ****         break;
 237:aios.c        ****     }
 238:aios.c        **** }
 196              		.loc 1 238 0
 197              		@ sp needed
 198 0044 10BD     		pop	{r4, pc}
 199              	.L22:
 200 0046 C046     		.align	2
 201              	.L21:
 202 0048 00000000 		.word	.L14
 203 004c 1C000000 		.word	.LC8
 204 0050 24000000 		.word	.LC10
 205 0054 40000000 		.word	.LC12
 206 0058 5C000000 		.word	.LC14
 207 005c 78000000 		.word	.LC16
 208 0060 90000000 		.word	.LC18
 209 0064 A8000000 		.word	.LC20
 210              		.cfi_endproc
 211              	.LFE39:
 212              		.size	PrintDescriptor, .-PrintDescriptor
 213              		.section	.text.AiosCallBack,"ax",%progbits
 214              		.align	2
 215              		.global	AiosCallBack
 216              		.code	16
 217              		.thumb_func
 218              		.type	AiosCallBack, %function
ARM GAS  C:\Users\JANUSD~1\AppData\Local\Temp\ccYzo0m7.s 			page 9


 219              	AiosCallBack:
 220              	.LFB37:
  52:aios.c        ****     CYBLE_AIOS_CHAR_VALUE_T *locCharValue;
 221              		.loc 1 52 0
 222              		.cfi_startproc
 223              		@ args = 0, pretend = 0, frame = 0
 224              		@ frame_needed = 0, uses_anonymous_args = 0
 225              	.LVL19:
 226 0000 70B5     		push	{r4, r5, r6, lr}
 227              		.cfi_def_cfa_offset 16
 228              		.cfi_offset 4, -16
 229              		.cfi_offset 5, -12
 230              		.cfi_offset 6, -8
 231              		.cfi_offset 14, -4
 232 0002 0C00     		movs	r4, r1
  62:aios.c        ****     {
 233              		.loc 1 62 0
 234 0004 0300     		movs	r3, r0
 235 0006 143B     		subs	r3, r3, #20
 236 0008 FF3B     		subs	r3, r3, #255
 237 000a 062B     		cmp	r3, #6
 238 000c 00D9     		bls	.LCB183
 239 000e F2E0     		b	.L24	@long jump
 240              	.LCB183:
 241 0010 9B00     		lsls	r3, r3, #2
 242 0012 7B4A     		ldr	r2, .L50
 243 0014 D358     		ldr	r3, [r2, r3]
 244 0016 9F46     		mov	pc, r3
 245              		.section	.rodata
 246              		.align	2
 247              	.L26:
 248 001c 18000000 		.word	.L25
 249 0020 34000000 		.word	.L27
 250 0024 50000000 		.word	.L28
 251 0028 9E000000 		.word	.L29
 252 002c D2000000 		.word	.L30
 253 0030 EE000000 		.word	.L31
 254 0034 3C010000 		.word	.L32
 255              		.section	.text.AiosCallBack
 256              	.L25:
  65:aios.c        ****         PrintCharacteristic(((CYBLE_AIOS_CHAR_VALUE_T *) eventParam)->charIndex);
 257              		.loc 1 65 0
 258 0018 7A48     		ldr	r0, .L50+4
 259              	.LVL20:
 260 001a FFF7FEFF 		bl	printf
 261              	.LVL21:
  66:aios.c        ****         DBG_PRINTF(" characteristic, instance: %d",((CYBLE_AIOS_CHAR_VALUE_T *) eventParam)->charIn
 262              		.loc 1 66 0
 263 001e A078     		ldrb	r0, [r4, #2]
 264 0020 FFF7FEFF 		bl	PrintCharacteristic
 265              	.LVL22:
  67:aios.c        ****         DBG_PRINTF(" notification is Enabled \r\n");
 266              		.loc 1 67 0
 267 0024 E178     		ldrb	r1, [r4, #3]
 268 0026 7848     		ldr	r0, .L50+8
 269 0028 FFF7FEFF 		bl	printf
 270              	.LVL23:
ARM GAS  C:\Users\JANUSD~1\AppData\Local\Temp\ccYzo0m7.s 			page 10


  68:aios.c        ****         break;
 271              		.loc 1 68 0
 272 002c 7748     		ldr	r0, .L50+12
 273 002e FFF7FEFF 		bl	puts
 274              	.LVL24:
  69:aios.c        ****                 
 275              		.loc 1 69 0
 276 0032 E4E0     		b	.L23
 277              	.LVL25:
 278              	.L27:
  72:aios.c        ****         PrintCharacteristic(((CYBLE_AIOS_CHAR_VALUE_T *)eventParam)->charIndex);
 279              		.loc 1 72 0
 280 0034 7648     		ldr	r0, .L50+16
 281              	.LVL26:
 282 0036 FFF7FEFF 		bl	printf
 283              	.LVL27:
  73:aios.c        ****         DBG_PRINTF(" characteristic, instance: %d",((CYBLE_AIOS_CHAR_VALUE_T *) eventParam)->charIn
 284              		.loc 1 73 0
 285 003a A078     		ldrb	r0, [r4, #2]
 286 003c FFF7FEFF 		bl	PrintCharacteristic
 287              	.LVL28:
  74:aios.c        ****         DBG_PRINTF(" notification is Disabled \r\n");
 288              		.loc 1 74 0
 289 0040 E178     		ldrb	r1, [r4, #3]
 290 0042 7148     		ldr	r0, .L50+8
 291 0044 FFF7FEFF 		bl	printf
 292              	.LVL29:
  75:aios.c        ****         break;
 293              		.loc 1 75 0
 294 0048 7248     		ldr	r0, .L50+20
 295 004a FFF7FEFF 		bl	puts
 296              	.LVL30:
  76:aios.c        **** 
 297              		.loc 1 76 0
 298 004e D6E0     		b	.L23
 299              	.LVL31:
 300              	.L28:
  79:aios.c        ****         PrintCharacteristic(((CYBLE_AIOS_CHAR_VALUE_T *) eventParam)->charIndex);
 301              		.loc 1 79 0
 302 0050 7148     		ldr	r0, .L50+24
 303              	.LVL32:
 304 0052 FFF7FEFF 		bl	printf
 305              	.LVL33:
  80:aios.c        ****         DBG_PRINTF(" characteristic, instance: %d",((CYBLE_AIOS_CHAR_VALUE_T *) eventParam)->charIn
 306              		.loc 1 80 0
 307 0056 A078     		ldrb	r0, [r4, #2]
 308 0058 FFF7FEFF 		bl	PrintCharacteristic
 309              	.LVL34:
  81:aios.c        ****         DBG_PRINTF(" indication is Enabled \r\n");
 310              		.loc 1 81 0
 311 005c E178     		ldrb	r1, [r4, #3]
 312 005e 6A48     		ldr	r0, .L50+8
 313 0060 FFF7FEFF 		bl	printf
 314              	.LVL35:
  82:aios.c        ****         if ((((CYBLE_AIOS_CHAR_VALUE_T *) eventParam)->charIndex == CYBLE_AIOS_ANALOG)
 315              		.loc 1 82 0
 316 0064 6D48     		ldr	r0, .L50+28
ARM GAS  C:\Users\JANUSD~1\AppData\Local\Temp\ccYzo0m7.s 			page 11


 317 0066 FFF7FEFF 		bl	puts
 318              	.LVL36:
  84:aios.c        ****             ledValue = LED_D_Read();
 319              		.loc 1 84 0
 320 006a 6288     		ldrh	r2, [r4, #2]
  83:aios.c        ****         && (((CYBLE_AIOS_CHAR_VALUE_T *) eventParam)->charInstance == INSTANCE_ADC)){
 321              		.loc 1 83 0
 322 006c 6C4B     		ldr	r3, .L50+32
 323 006e 9A42     		cmp	r2, r3
 324 0070 00D0     		beq	.LCB255
 325 0072 C4E0     		b	.L23	@long jump
 326              	.LCB255:
  85:aios.c        ****             ledValue |= 1; //&= ~ledMask[i];
 327              		.loc 1 85 0
 328 0074 FFF7FEFF 		bl	LED_D_Read
 329              	.LVL37:
 330 0078 0400     		movs	r4, r0
 331              	.LVL38:
  87:aios.c        ****             LED_D_Write(ledValue);
 332              		.loc 1 87 0
 333 007a 0320     		movs	r0, #3
 334 007c 2043     		orrs	r0, r4
 335 007e C0B2     		uxtb	r0, r0
 336              	.LVL39:
  88:aios.c        ****             CyDelay(400);
 337              		.loc 1 88 0
 338 0080 FFF7FEFF 		bl	LED_D_Write
 339              	.LVL40:
  89:aios.c        ****             ledValue &= ~2; //&= ~ledMask[i];
 340              		.loc 1 89 0
 341 0084 C820     		movs	r0, #200
 342 0086 4000     		lsls	r0, r0, #1
 343 0088 FFF7FEFF 		bl	CyDelay
 344              	.LVL41:
 345 008c 0223     		movs	r3, #2
 346 008e 9C43     		bics	r4, r3
 347 0090 E4B2     		uxtb	r4, r4
  90:aios.c        ****             LED_D_Write(ledValue);
 348              		.loc 1 90 0
 349 0092 0120     		movs	r0, #1
 350 0094 0443     		orrs	r4, r0
 351 0096 E0B2     		uxtb	r0, r4
 352              	.LVL42:
  91:aios.c        ****         }
 353              		.loc 1 91 0
 354 0098 FFF7FEFF 		bl	LED_D_Write
 355              	.LVL43:
 356 009c AFE0     		b	.L23
 357              	.LVL44:
 358              	.L29:
  97:aios.c        ****         PrintCharacteristic(((CYBLE_AIOS_CHAR_VALUE_T *)eventParam)->charIndex);
 359              		.loc 1 97 0
 360 009e 6148     		ldr	r0, .L50+36
 361              	.LVL45:
 362 00a0 FFF7FEFF 		bl	printf
 363              	.LVL46:
  98:aios.c        ****         DBG_PRINTF(" characteristic, instance: %d",((CYBLE_AIOS_CHAR_VALUE_T *) eventParam)->charIn
ARM GAS  C:\Users\JANUSD~1\AppData\Local\Temp\ccYzo0m7.s 			page 12


 364              		.loc 1 98 0
 365 00a4 A078     		ldrb	r0, [r4, #2]
 366 00a6 FFF7FEFF 		bl	PrintCharacteristic
 367              	.LVL47:
  99:aios.c        ****         DBG_PRINTF(" indication is Disabled \r\n");
 368              		.loc 1 99 0
 369 00aa E178     		ldrb	r1, [r4, #3]
 370 00ac 5648     		ldr	r0, .L50+8
 371 00ae FFF7FEFF 		bl	printf
 372              	.LVL48:
 100:aios.c        ****         if ((((CYBLE_AIOS_CHAR_VALUE_T *) eventParam)->charIndex == CYBLE_AIOS_ANALOG)
 373              		.loc 1 100 0
 374 00b2 5D48     		ldr	r0, .L50+40
 375 00b4 FFF7FEFF 		bl	puts
 376              	.LVL49:
 102:aios.c        ****             ledValue = LED_D_Read();
 377              		.loc 1 102 0
 378 00b8 6288     		ldrh	r2, [r4, #2]
 101:aios.c        ****         && (((CYBLE_AIOS_CHAR_VALUE_T *) eventParam)->charInstance == INSTANCE_ADC)){
 379              		.loc 1 101 0
 380 00ba 594B     		ldr	r3, .L50+32
 381 00bc 9A42     		cmp	r2, r3
 382 00be 00D0     		beq	.LCB307
 383 00c0 9DE0     		b	.L23	@long jump
 384              	.LCB307:
 103:aios.c        ****             ledValue &= ~1; //&= ~ledMask[i];
 385              		.loc 1 103 0
 386 00c2 FFF7FEFF 		bl	LED_D_Read
 387              	.LVL50:
 104:aios.c        ****             LED_D_Write(ledValue);
 388              		.loc 1 104 0
 389 00c6 0123     		movs	r3, #1
 390 00c8 9843     		bics	r0, r3
 391              	.LVL51:
 392 00ca C0B2     		uxtb	r0, r0
 393              	.LVL52:
 105:aios.c        ****         }
 394              		.loc 1 105 0
 395 00cc FFF7FEFF 		bl	LED_D_Write
 396              	.LVL53:
 397 00d0 95E0     		b	.L23
 398              	.LVL54:
 399              	.L30:
 110:aios.c        ****         PrintCharacteristic(((CYBLE_AIOS_CHAR_VALUE_T *)eventParam)->charIndex);
 400              		.loc 1 110 0
 401 00d2 5648     		ldr	r0, .L50+44
 402              	.LVL55:
 403 00d4 FFF7FEFF 		bl	printf
 404              	.LVL56:
 111:aios.c        ****         DBG_PRINTF(" characteristic, instance: %d",((CYBLE_AIOS_CHAR_VALUE_T *) eventParam)->charIn
 405              		.loc 1 111 0
 406 00d8 A078     		ldrb	r0, [r4, #2]
 407 00da FFF7FEFF 		bl	PrintCharacteristic
 408              	.LVL57:
 112:aios.c        ****         DBG_PRINTF(" indication is Confirmed \r\n");
 409              		.loc 1 112 0
 410 00de E178     		ldrb	r1, [r4, #3]
ARM GAS  C:\Users\JANUSD~1\AppData\Local\Temp\ccYzo0m7.s 			page 13


 411 00e0 4948     		ldr	r0, .L50+8
 412 00e2 FFF7FEFF 		bl	printf
 413              	.LVL58:
 113:aios.c        ****         break;
 414              		.loc 1 113 0
 415 00e6 5248     		ldr	r0, .L50+48
 416 00e8 FFF7FEFF 		bl	puts
 417              	.LVL59:
 114:aios.c        **** 
 418              		.loc 1 114 0
 419 00ec 87E0     		b	.L23
 420              	.LVL60:
 421              	.L31:
 118:aios.c        ****         PrintCharacteristic(locCharValue->charIndex);        
 422              		.loc 1 118 0
 423 00ee 5148     		ldr	r0, .L50+52
 424              	.LVL61:
 425 00f0 FFF7FEFF 		bl	printf
 426              	.LVL62:
 119:aios.c        ****         DBG_PRINTF(", charInstance - %d, ", locCharValue->charInstance);
 427              		.loc 1 119 0
 428 00f4 A078     		ldrb	r0, [r4, #2]
 429 00f6 FFF7FEFF 		bl	PrintCharacteristic
 430              	.LVL63:
 120:aios.c        ****         DBG_PRINTF("value - %d (0x%2.2X)  len - %d\r\n",(locCharValue->value->len == 1) ? locCharVa
 431              		.loc 1 120 0
 432 00fa E178     		ldrb	r1, [r4, #3]
 433 00fc 4E48     		ldr	r0, .L50+56
 434 00fe FFF7FEFF 		bl	printf
 435              	.LVL64:
 121:aios.c        ****                                                     (locCharValue->value->len == 1) ? locCharValue-
 436              		.loc 1 121 0
 437 0102 6368     		ldr	r3, [r4, #4]
 438 0104 9A88     		ldrh	r2, [r3, #4]
 439 0106 012A     		cmp	r2, #1
 440 0108 02D1     		bne	.L34
 121:aios.c        ****                                                     (locCharValue->value->len == 1) ? locCharValue-
 441              		.loc 1 121 0 is_stmt 0 discriminator 1
 442 010a 1B68     		ldr	r3, [r3]
 443 010c 1D78     		ldrb	r5, [r3]
 444 010e 03E0     		b	.L35
 445              	.L34:
 121:aios.c        ****                                                     (locCharValue->value->len == 1) ? locCharValue-
 446              		.loc 1 121 0 discriminator 2
 447 0110 1868     		ldr	r0, [r3]
 448 0112 FFF7FEFF 		bl	CyBle_Get16ByPtr
 449              	.LVL65:
 450 0116 0500     		movs	r5, r0
 451              	.L35:
 121:aios.c        ****                                                     (locCharValue->value->len == 1) ? locCharValue-
 452              		.loc 1 121 0 discriminator 4
 453 0118 6368     		ldr	r3, [r4, #4]
 454 011a 9A88     		ldrh	r2, [r3, #4]
 455 011c 012A     		cmp	r2, #1
 456 011e 02D1     		bne	.L36
 121:aios.c        ****                                                     (locCharValue->value->len == 1) ? locCharValue-
 457              		.loc 1 121 0 discriminator 5
ARM GAS  C:\Users\JANUSD~1\AppData\Local\Temp\ccYzo0m7.s 			page 14


 458 0120 1B68     		ldr	r3, [r3]
 459 0122 1A78     		ldrb	r2, [r3]
 460 0124 03E0     		b	.L37
 461              	.L36:
 121:aios.c        ****                                                     (locCharValue->value->len == 1) ? locCharValue-
 462              		.loc 1 121 0 discriminator 6
 463 0126 1868     		ldr	r0, [r3]
 464 0128 FFF7FEFF 		bl	CyBle_Get16ByPtr
 465              	.LVL66:
 466 012c 0200     		movs	r2, r0
 467              	.L37:
 121:aios.c        ****                                                     (locCharValue->value->len == 1) ? locCharValue-
 468              		.loc 1 121 0 discriminator 8
 469 012e 6368     		ldr	r3, [r4, #4]
 470 0130 9B88     		ldrh	r3, [r3, #4]
 471 0132 2900     		movs	r1, r5
 472 0134 4148     		ldr	r0, .L50+60
 473 0136 FFF7FEFF 		bl	printf
 474              	.LVL67:
 124:aios.c        ****         
 475              		.loc 1 124 0 is_stmt 1 discriminator 8
 476 013a 60E0     		b	.L23
 477              	.LVL68:
 478              	.L32:
 128:aios.c        ****         PrintCharacteristic(locDescrValue->charIndex);        
 479              		.loc 1 128 0
 480 013c 4048     		ldr	r0, .L50+64
 481              	.LVL69:
 482 013e FFF7FEFF 		bl	printf
 483              	.LVL70:
 129:aios.c        ****         DBG_PRINTF(", charInstance -  %d,",locDescrValue->charInstance);
 484              		.loc 1 129 0
 485 0142 A078     		ldrb	r0, [r4, #2]
 486 0144 FFF7FEFF 		bl	PrintCharacteristic
 487              	.LVL71:
 130:aios.c        ****         DBG_PRINTF(" descrIndex - ");
 488              		.loc 1 130 0
 489 0148 E178     		ldrb	r1, [r4, #3]
 490 014a 3E48     		ldr	r0, .L50+68
 491 014c FFF7FEFF 		bl	printf
 492              	.LVL72:
 131:aios.c        ****         PrintDescriptor(locDescrValue->descrIndex);
 493              		.loc 1 131 0
 494 0150 3D48     		ldr	r0, .L50+72
 495 0152 FFF7FEFF 		bl	printf
 496              	.LVL73:
 132:aios.c        ****         DBG_PRINTF(", ");
 497              		.loc 1 132 0
 498 0156 2079     		ldrb	r0, [r4, #4]
 499 0158 FFF7FEFF 		bl	PrintDescriptor
 500              	.LVL74:
 133:aios.c        ****         
 501              		.loc 1 133 0
 502 015c 3B48     		ldr	r0, .L50+76
 503 015e FFF7FEFF 		bl	printf
 504              	.LVL75:
 135:aios.c        ****         {
ARM GAS  C:\Users\JANUSD~1\AppData\Local\Temp\ccYzo0m7.s 			page 15


 505              		.loc 1 135 0
 506 0162 A368     		ldr	r3, [r4, #8]
 507 0164 9A88     		ldrh	r2, [r3, #4]
 508 0166 022A     		cmp	r2, #2
 509 0168 18D8     		bhi	.L38
 137:aios.c        ****                                       (locDescrValue->value->len == 1) ? locDescrValue->value->val[
 510              		.loc 1 137 0
 511 016a 012A     		cmp	r2, #1
 512 016c 02D1     		bne	.L39
 137:aios.c        ****                                       (locDescrValue->value->len == 1) ? locDescrValue->value->val[
 513              		.loc 1 137 0 is_stmt 0 discriminator 1
 514 016e 1B68     		ldr	r3, [r3]
 515 0170 1D78     		ldrb	r5, [r3]
 516 0172 03E0     		b	.L40
 517              	.L39:
 137:aios.c        ****                                       (locDescrValue->value->len == 1) ? locDescrValue->value->val[
 518              		.loc 1 137 0 discriminator 2
 519 0174 1868     		ldr	r0, [r3]
 520 0176 FFF7FEFF 		bl	CyBle_Get16ByPtr
 521              	.LVL76:
 522 017a 0500     		movs	r5, r0
 523              	.L40:
 137:aios.c        ****                                       (locDescrValue->value->len == 1) ? locDescrValue->value->val[
 524              		.loc 1 137 0 discriminator 4
 525 017c A368     		ldr	r3, [r4, #8]
 526 017e 9A88     		ldrh	r2, [r3, #4]
 527 0180 012A     		cmp	r2, #1
 528 0182 02D1     		bne	.L41
 137:aios.c        ****                                       (locDescrValue->value->len == 1) ? locDescrValue->value->val[
 529              		.loc 1 137 0 discriminator 5
 530 0184 1B68     		ldr	r3, [r3]
 531 0186 1A78     		ldrb	r2, [r3]
 532 0188 03E0     		b	.L42
 533              	.L41:
 137:aios.c        ****                                       (locDescrValue->value->len == 1) ? locDescrValue->value->val[
 534              		.loc 1 137 0 discriminator 6
 535 018a 1868     		ldr	r0, [r3]
 536 018c FFF7FEFF 		bl	CyBle_Get16ByPtr
 537              	.LVL77:
 538 0190 0200     		movs	r2, r0
 539              	.L42:
 137:aios.c        ****                                       (locDescrValue->value->len == 1) ? locDescrValue->value->val[
 540              		.loc 1 137 0 discriminator 8
 541 0192 2900     		movs	r1, r5
 542 0194 2E48     		ldr	r0, .L50+80
 543 0196 FFF7FEFF 		bl	printf
 544              	.LVL78:
 545 019a 26E0     		b	.L43
 546              	.L38:
 142:aios.c        ****             for(i = 0; i < locDescrValue->value->len; i++)
 547              		.loc 1 142 0 is_stmt 1
 548 019c 2D48     		ldr	r0, .L50+84
 549 019e FFF7FEFF 		bl	printf
 550              	.LVL79:
 143:aios.c        ****             {
 551              		.loc 1 143 0
 552 01a2 0025     		movs	r5, #0
ARM GAS  C:\Users\JANUSD~1\AppData\Local\Temp\ccYzo0m7.s 			page 16


 553 01a4 06E0     		b	.L44
 554              	.LVL80:
 555              	.L45:
 145:aios.c        ****             }    
 556              		.loc 1 145 0 discriminator 3
 557 01a6 1368     		ldr	r3, [r2]
 558 01a8 595D     		ldrb	r1, [r3, r5]
 559 01aa 2B48     		ldr	r0, .L50+88
 560 01ac FFF7FEFF 		bl	printf
 561              	.LVL81:
 143:aios.c        ****             {
 562              		.loc 1 143 0 discriminator 3
 563 01b0 0135     		adds	r5, r5, #1
 564              	.LVL82:
 565 01b2 EDB2     		uxtb	r5, r5
 566              	.LVL83:
 567              	.L44:
 143:aios.c        ****             {
 568              		.loc 1 143 0 is_stmt 0 discriminator 1
 569 01b4 ABB2     		uxth	r3, r5
 570 01b6 A268     		ldr	r2, [r4, #8]
 571 01b8 9188     		ldrh	r1, [r2, #4]
 572 01ba 8B42     		cmp	r3, r1
 573 01bc F3D3     		bcc	.L45
 147:aios.c        ****             for(i = 0; i < locDescrValue->value->len; i++)
 574              		.loc 1 147 0 is_stmt 1
 575 01be 2748     		ldr	r0, .L50+92
 576 01c0 FFF7FEFF 		bl	printf
 577              	.LVL84:
 148:aios.c        ****             {
 578              		.loc 1 148 0
 579 01c4 0025     		movs	r5, #0
 580 01c6 08E0     		b	.L46
 581              	.LVL85:
 582              	.L48:
 150:aios.c        ****             }    
 583              		.loc 1 150 0
 584 01c8 1368     		ldr	r3, [r2]
 585 01ca 585D     		ldrb	r0, [r3, r5]
 586 01cc 1F28     		cmp	r0, #31
 587 01ce 00D8     		bhi	.L47
 588 01d0 2A20     		movs	r0, #42
 589              	.L47:
 150:aios.c        ****             }    
 590              		.loc 1 150 0 is_stmt 0 discriminator 4
 591 01d2 FFF7FEFF 		bl	putchar
 592              	.LVL86:
 148:aios.c        ****             {
 593              		.loc 1 148 0 is_stmt 1 discriminator 4
 594 01d6 0135     		adds	r5, r5, #1
 595              	.LVL87:
 596 01d8 EDB2     		uxtb	r5, r5
 597              	.LVL88:
 598              	.L46:
 148:aios.c        ****             {
 599              		.loc 1 148 0 is_stmt 0 discriminator 2
 600 01da ABB2     		uxth	r3, r5
ARM GAS  C:\Users\JANUSD~1\AppData\Local\Temp\ccYzo0m7.s 			page 17


 601 01dc A268     		ldr	r2, [r4, #8]
 602 01de 9188     		ldrh	r1, [r2, #4]
 603 01e0 8B42     		cmp	r3, r1
 604 01e2 F1D3     		bcc	.L48
 152:aios.c        ****         }
 605              		.loc 1 152 0 is_stmt 1
 606 01e4 1E48     		ldr	r0, .L50+96
 607 01e6 FFF7FEFF 		bl	printf
 608              	.LVL89:
 609              	.L43:
 154:aios.c        ****         break;
 610              		.loc 1 154 0
 611 01ea A368     		ldr	r3, [r4, #8]
 612 01ec 9988     		ldrh	r1, [r3, #4]
 613 01ee 1D48     		ldr	r0, .L50+100
 614 01f0 FFF7FEFF 		bl	printf
 615              	.LVL90:
 155:aios.c        ****         
 616              		.loc 1 155 0
 617 01f4 03E0     		b	.L23
 618              	.LVL91:
 619              	.L24:
 158:aios.c        ****         break;
 620              		.loc 1 158 0
 621 01f6 0100     		movs	r1, r0
 622              	.LVL92:
 623 01f8 1B48     		ldr	r0, .L50+104
 624              	.LVL93:
 625 01fa FFF7FEFF 		bl	printf
 626              	.LVL94:
 627              	.L23:
 161:aios.c        **** 
 628              		.loc 1 161 0
 629              		@ sp needed
 630 01fe 70BD     		pop	{r4, r5, r6, pc}
 631              	.L51:
 632              		.align	2
 633              	.L50:
 634 0200 1C000000 		.word	.L26
 635 0204 AC000000 		.word	.LC23
 636 0208 D4000000 		.word	.LC25
 637 020c F4000000 		.word	.LC27
 638 0210 10010000 		.word	.LC29
 639 0214 38010000 		.word	.LC31
 640 0218 54010000 		.word	.LC33
 641 021c 7C010000 		.word	.LC35
 642 0220 01020000 		.word	513
 643 0224 98010000 		.word	.LC37
 644 0228 C0010000 		.word	.LC39
 645 022c DC010000 		.word	.LC41
 646 0230 04020000 		.word	.LC43
 647 0234 20020000 		.word	.LC45
 648 0238 48020000 		.word	.LC47
 649 023c 60020000 		.word	.LC49
 650 0240 84020000 		.word	.LC51
 651 0244 B0020000 		.word	.LC53
 652 0248 C8020000 		.word	.LC55
ARM GAS  C:\Users\JANUSD~1\AppData\Local\Temp\ccYzo0m7.s 			page 18


 653 024c D8020000 		.word	.LC57
 654 0250 DC020000 		.word	.LC59
 655 0254 F4020000 		.word	.LC61
 656 0258 00030000 		.word	.LC63
 657 025c 08030000 		.word	.LC65
 658 0260 0C030000 		.word	.LC67
 659 0264 10030000 		.word	.LC69
 660 0268 1C030000 		.word	.LC71
 661              		.cfi_endproc
 662              	.LFE37:
 663              		.size	AiosCallBack, .-AiosCallBack
 664              		.section	.text.StartAdvertisement,"ax",%progbits
 665              		.align	2
 666              		.global	StartAdvertisement
 667              		.code	16
 668              		.thumb_func
 669              		.type	StartAdvertisement, %function
 670              	StartAdvertisement:
 671              	.LFB40:
 239:aios.c        **** 
 240:aios.c        **** /*******************************************************************************
 241:aios.c        **** * Function Name: StartAdvertisement
 242:aios.c        **** ********************************************************************************
 243:aios.c        **** *
 244:aios.c        **** * Summary:
 245:aios.c        **** *   Initiates the advertisement procedure. 
 246:aios.c        **** *   Prints the Device Address.
 247:aios.c        **** *
 248:aios.c        **** * Parameters:  
 249:aios.c        **** *   None.
 250:aios.c        **** *
 251:aios.c        **** * Return:
 252:aios.c        **** *   None.
 253:aios.c        **** *
 254:aios.c        **** *******************************************************************************/
 255:aios.c        **** void StartAdvertisement(void)
 256:aios.c        **** {
 672              		.loc 1 256 0
 673              		.cfi_startproc
 674              		@ args = 0, pretend = 0, frame = 8
 675              		@ frame_needed = 0, uses_anonymous_args = 0
 676 0000 10B5     		push	{r4, lr}
 677              		.cfi_def_cfa_offset 8
 678              		.cfi_offset 4, -8
 679              		.cfi_offset 14, -4
 680 0002 82B0     		sub	sp, sp, #8
 681              		.cfi_def_cfa_offset 16
 257:aios.c        ****     CYBLE_GAP_BD_ADDR_T localAddr;
 258:aios.c        ****     uint16 i;
 259:aios.c        ****     apiResult = CyBle_GappStartAdvertisement(CYBLE_ADVERTISING_FAST);
 682              		.loc 1 259 0
 683 0004 0020     		movs	r0, #0
 684 0006 FFF7FEFF 		bl	CyBle_GappStartAdvertisement
 685              	.LVL95:
 686 000a 114B     		ldr	r3, .L57
 687 000c 1880     		strh	r0, [r3]
 260:aios.c        ****     if(apiResult != CYBLE_ERROR_OK)
ARM GAS  C:\Users\JANUSD~1\AppData\Local\Temp\ccYzo0m7.s 			page 19


 688              		.loc 1 260 0
 689 000e 0028     		cmp	r0, #0
 690 0010 05D0     		beq	.L53
 261:aios.c        ****     {
 262:aios.c        ****         DBG_PRINTF("StartAdvertisement API Error: ");
 691              		.loc 1 262 0
 692 0012 1048     		ldr	r0, .L57+4
 693 0014 FFF7FEFF 		bl	printf
 694              	.LVL96:
 263:aios.c        ****         PrintApiResult();
 695              		.loc 1 263 0
 696 0018 FFF7FEFF 		bl	PrintApiResult
 697              	.LVL97:
 698 001c 16E0     		b	.L52
 699              	.L53:
 264:aios.c        ****     }
 265:aios.c        ****     else
 266:aios.c        ****     {
 267:aios.c        ****         DBG_PRINTF("Start Advertisement with addr: ");
 700              		.loc 1 267 0
 701 001e 0E48     		ldr	r0, .L57+8
 702 0020 FFF7FEFF 		bl	printf
 703              	.LVL98:
 268:aios.c        ****         CyBle_GetDeviceAddress(&localAddr);
 704              		.loc 1 268 0
 705 0024 6846     		mov	r0, sp
 706 0026 FFF7FEFF 		bl	CyBle_GetDeviceAddress
 707              	.LVL99:
 269:aios.c        ****         for(i = CYBLE_GAP_BD_ADDR_SIZE; i > 0u; i--)
 708              		.loc 1 269 0
 709 002a 0623     		movs	r3, #6
 710 002c 06E0     		b	.L55
 711              	.LVL100:
 712              	.L56:
 270:aios.c        ****         {
 271:aios.c        ****             DBG_PRINTF("%2.2x", localAddr.bdAddr[i-1]);
 713              		.loc 1 271 0 discriminator 3
 714 002e 5C1E     		subs	r4, r3, #1
 715 0030 6B46     		mov	r3, sp
 716              	.LVL101:
 717 0032 195D     		ldrb	r1, [r3, r4]
 718 0034 0948     		ldr	r0, .L57+12
 719 0036 FFF7FEFF 		bl	printf
 720              	.LVL102:
 269:aios.c        ****         for(i = CYBLE_GAP_BD_ADDR_SIZE; i > 0u; i--)
 721              		.loc 1 269 0 discriminator 3
 722 003a A3B2     		uxth	r3, r4
 723              	.LVL103:
 724              	.L55:
 269:aios.c        ****         for(i = CYBLE_GAP_BD_ADDR_SIZE; i > 0u; i--)
 725              		.loc 1 269 0 is_stmt 0 discriminator 1
 726 003c 002B     		cmp	r3, #0
 727 003e F6D1     		bne	.L56
 272:aios.c        ****         }
 273:aios.c        ****         DBG_PRINTF("\r\n");
 728              		.loc 1 273 0 is_stmt 1
 729 0040 0748     		ldr	r0, .L57+16
ARM GAS  C:\Users\JANUSD~1\AppData\Local\Temp\ccYzo0m7.s 			page 20


 730 0042 FFF7FEFF 		bl	puts
 731              	.LVL104:
 274:aios.c        ****         Advertising_LED_Write(LED_ON);
 732              		.loc 1 274 0
 733 0046 0020     		movs	r0, #0
 734 0048 FFF7FEFF 		bl	Advertising_LED_Write
 735              	.LVL105:
 736              	.L52:
 275:aios.c        ****     }
 276:aios.c        **** }
 737              		.loc 1 276 0
 738 004c 02B0     		add	sp, sp, #8
 739              		@ sp needed
 740 004e 10BD     		pop	{r4, pc}
 741              	.L58:
 742              		.align	2
 743              	.L57:
 744 0050 00000000 		.word	apiResult
 745 0054 3C030000 		.word	.LC74
 746 0058 5C030000 		.word	.LC76
 747 005c 7C030000 		.word	.LC78
 748 0060 84030000 		.word	.LC80
 749              		.cfi_endproc
 750              	.LFE40:
 751              		.size	StartAdvertisement, .-StartAdvertisement
 752              		.section	.rodata.str1.4,"aMS",%progbits,1
 753              		.align	2
 754              	.LC1:
 755 0000 44494749 		.ascii	"DIGITAL\000"
 755      54414C00 
 756              	.LC3:
 757 0008 414E414C 		.ascii	"ANALOG\000"
 757      4F4700
 758 000f 00       		.space	1
 759              	.LC5:
 760 0010 41474752 		.ascii	"AGGREGATE\000"
 760      45474154 
 760      4500
 761 001a 0000     		.space	2
 762              	.LC8:
 763 001c 43434344 		.ascii	"CCCD\000"
 763      00
 764 0021 000000   		.space	3
 765              	.LC10:
 766 0024 43484152 		.ascii	"CHAR_PRESENTATION_FORMAT\000"
 766      5F505245 
 766      53454E54 
 766      4154494F 
 766      4E5F464F 
 767 003d 000000   		.space	3
 768              	.LC12:
 769 0040 43484152 		.ascii	"CHAR_USER_DESCRIPTION_DESCR\000"
 769      5F555345 
 769      525F4445 
 769      53435249 
 769      5054494F 
 770              	.LC14:
ARM GAS  C:\Users\JANUSD~1\AppData\Local\Temp\ccYzo0m7.s 			page 21


 771 005c 43484152 		.ascii	"CHAR_EXTENDED_PROPERTIES\000"
 771      5F455854 
 771      454E4445 
 771      445F5052 
 771      4F504552 
 772 0075 000000   		.space	3
 773              	.LC16:
 774 0078 56414C55 		.ascii	"VALUE_TRIGGER_SETTINGS\000"
 774      455F5452 
 774      49474745 
 774      525F5345 
 774      5454494E 
 775 008f 00       		.space	1
 776              	.LC18:
 777 0090 54494D45 		.ascii	"TIME_TRIGGER_SETTINGS\000"
 777      5F545249 
 777      47474552 
 777      5F534554 
 777      54494E47 
 778 00a6 0000     		.space	2
 779              	.LC20:
 780 00a8 56524400 		.ascii	"VRD\000"
 781              	.LC23:
 782 00ac 4359424C 		.ascii	"CYBLE_EVT_AIOSS_NOTIFICATION_ENABLED: \000"
 782      455F4556 
 782      545F4149 
 782      4F53535F 
 782      4E4F5449 
 783 00d3 00       		.space	1
 784              	.LC25:
 785 00d4 20636861 		.ascii	" characteristic, instance: %d\000"
 785      72616374 
 785      65726973 
 785      7469632C 
 785      20696E73 
 786 00f2 0000     		.space	2
 787              	.LC27:
 788 00f4 206E6F74 		.ascii	" notification is Enabled \015\000"
 788      69666963 
 788      6174696F 
 788      6E206973 
 788      20456E61 
 789 010f 00       		.space	1
 790              	.LC29:
 791 0110 4359424C 		.ascii	"CYBLE_EVT_AIOSS_NOTIFICATION_DISABLED: \000"
 791      455F4556 
 791      545F4149 
 791      4F53535F 
 791      4E4F5449 
 792              	.LC31:
 793 0138 206E6F74 		.ascii	" notification is Disabled \015\000"
 793      69666963 
 793      6174696F 
 793      6E206973 
 793      20446973 
 794              	.LC33:
 795 0154 4359424C 		.ascii	"CYBLE_EVT_AIOSS_INDICATION_ENABLED: \000"
ARM GAS  C:\Users\JANUSD~1\AppData\Local\Temp\ccYzo0m7.s 			page 22


 795      455F4556 
 795      545F4149 
 795      4F53535F 
 795      494E4449 
 796 0179 000000   		.space	3
 797              	.LC35:
 798 017c 20696E64 		.ascii	" indication is Enabled \015\000"
 798      69636174 
 798      696F6E20 
 798      69732045 
 798      6E61626C 
 799 0195 000000   		.space	3
 800              	.LC37:
 801 0198 4359424C 		.ascii	"CYBLE_EVT_AIOSS_INDICATION_DISABLED: \000"
 801      455F4556 
 801      545F4149 
 801      4F53535F 
 801      494E4449 
 802 01be 0000     		.space	2
 803              	.LC39:
 804 01c0 20696E64 		.ascii	" indication is Disabled \015\000"
 804      69636174 
 804      696F6E20 
 804      69732044 
 804      69736162 
 805 01da 0000     		.space	2
 806              	.LC41:
 807 01dc 4359424C 		.ascii	"CYBLE_EVT_AIOSS_INDICATION_CONFIRMED: \000"
 807      455F4556 
 807      545F4149 
 807      4F53535F 
 807      494E4449 
 808 0203 00       		.space	1
 809              	.LC43:
 810 0204 20696E64 		.ascii	" indication is Confirmed \015\000"
 810      69636174 
 810      696F6E20 
 810      69732043 
 810      6F6E6669 
 811 021f 00       		.space	1
 812              	.LC45:
 813 0220 4359424C 		.ascii	"CYBLE_EVT_AIOSS_CHAR_WRITE charIndex - \000"
 813      455F4556 
 813      545F4149 
 813      4F53535F 
 813      43484152 
 814              	.LC47:
 815 0248 2C206368 		.ascii	", charInstance - %d, \000"
 815      6172496E 
 815      7374616E 
 815      6365202D 
 815      2025642C 
 816 025e 0000     		.space	2
 817              	.LC49:
 818 0260 76616C75 		.ascii	"value - %d (0x%2.2X)  len - %d\015\012\000"
 818      65202D20 
 818      25642028 
ARM GAS  C:\Users\JANUSD~1\AppData\Local\Temp\ccYzo0m7.s 			page 23


 818      30782532 
 818      2E325829 
 819 0281 000000   		.space	3
 820              	.LC51:
 821 0284 4359424C 		.ascii	"CYBLE_EVT_AIOSS_DESCR_WRITE charIndex - \000"
 821      455F4556 
 821      545F4149 
 821      4F53535F 
 821      44455343 
 822 02ad 000000   		.space	3
 823              	.LC53:
 824 02b0 2C206368 		.ascii	", charInstance -  %d,\000"
 824      6172496E 
 824      7374616E 
 824      6365202D 
 824      20202564 
 825 02c6 0000     		.space	2
 826              	.LC55:
 827 02c8 20646573 		.ascii	" descrIndex - \000"
 827      6372496E 
 827      64657820 
 827      2D2000
 828 02d7 00       		.space	1
 829              	.LC57:
 830 02d8 2C2000   		.ascii	", \000"
 831 02db 00       		.space	1
 832              	.LC59:
 833 02dc 76616C75 		.ascii	"value - %d (0x%2.2X)  \000"
 833      65202D20 
 833      25642028 
 833      30782532 
 833      2E325829 
 834 02f3 00       		.space	1
 835              	.LC61:
 836 02f4 76616C75 		.ascii	"value - \000"
 836      65202D20 
 836      00
 837 02fd 000000   		.space	3
 838              	.LC63:
 839 0300 25322E32 		.ascii	"%2.2X \000"
 839      582000
 840 0307 00       		.space	1
 841              	.LC65:
 842 0308 202800   		.ascii	" (\000"
 843 030b 00       		.space	1
 844              	.LC67:
 845 030c 29202000 		.ascii	")  \000"
 846              	.LC69:
 847 0310 6C656E20 		.ascii	"len - %d\015\012\000"
 847      2D202564 
 847      0D0A00
 848 031b 00       		.space	1
 849              	.LC71:
 850 031c 756E6B6E 		.ascii	"unknown AIOS event: 0x%lx \015\012\000"
 850      6F776E20 
 850      41494F53 
 850      20657665 
ARM GAS  C:\Users\JANUSD~1\AppData\Local\Temp\ccYzo0m7.s 			page 24


 850      6E743A20 
 851 0339 000000   		.space	3
 852              	.LC74:
 853 033c 53746172 		.ascii	"StartAdvertisement API Error: \000"
 853      74416476 
 853      65727469 
 853      73656D65 
 853      6E742041 
 854 035b 00       		.space	1
 855              	.LC76:
 856 035c 53746172 		.ascii	"Start Advertisement with addr: \000"
 856      74204164 
 856      76657274 
 856      6973656D 
 856      656E7420 
 857              	.LC78:
 858 037c 25322E32 		.ascii	"%2.2x\000"
 858      7800
 859 0382 0000     		.space	2
 860              	.LC80:
 861 0384 0D00     		.ascii	"\015\000"
 862              		.text
 863              	.Letext0:
 864              		.file 2 "Generated_Source\\PSoC4/cytypes.h"
 865              		.file 3 "Generated_Source\\PSoC4/BLE_1_Stack.h"
 866              		.file 4 "Generated_Source\\PSoC4/BLE_1_StackGatt.h"
 867              		.file 5 "Generated_Source\\PSoC4/BLE_1_aios.h"
 868              		.file 6 "Generated_Source\\PSoC4/BLE_1_eventHandler.h"
 869              		.file 7 "c:\\program files (x86)\\cypress\\psoc creator\\4.2\\psoc creator\\import\\gnu\\arm\\5.4.
 870              		.file 8 "Generated_Source\\PSoC4/LED_D.h"
 871              		.file 9 "Generated_Source\\PSoC4/CyLib.h"
 872              		.file 10 "Generated_Source\\PSoC4/BLE_1.h"
 873              		.file 11 "<built-in>"
 874              		.file 12 "debug.h"
 875              		.file 13 "Generated_Source\\PSoC4/Advertising_LED.h"
 876              		.file 14 "aios.h"