ARM GAS  C:\Users\JANUSD~1\AppData\Local\Temp\ccK195Su.s 			page 1


   1              		.syntax unified
   2              		.cpu cortex-m0
   3              		.fpu softvfp
   4              		.eabi_attribute 20, 1
   5              		.eabi_attribute 21, 1
   6              		.eabi_attribute 23, 3
   7              		.eabi_attribute 24, 1
   8              		.eabi_attribute 25, 1
   9              		.eabi_attribute 26, 1
  10              		.eabi_attribute 30, 1
  11              		.eabi_attribute 34, 0
  12              		.eabi_attribute 18, 4
  13              		.thumb
  14              		.syntax unified
  15              		.file	"CapSense_Processing.c"
  16              		.text
  17              	.Ltext0:
  18              		.cfi_sections	.debug_frame
  19              		.section	.text.CapSense_DpInitialize,"ax",%progbits
  20              		.align	2
  21              		.global	CapSense_DpInitialize
  22              		.code	16
  23              		.thumb_func
  24              		.type	CapSense_DpInitialize, %function
  25              	CapSense_DpInitialize:
  26              	.LFB3:
  27              		.file 1 "Generated_Source\\PSoC4\\CapSense_Processing.c"
   1:Generated_Source\PSoC4/CapSense_Processing.c **** /***************************************************************************//**
   2:Generated_Source\PSoC4/CapSense_Processing.c **** * \file CapSense_Processing.c
   3:Generated_Source\PSoC4/CapSense_Processing.c **** * \version 5.0
   4:Generated_Source\PSoC4/CapSense_Processing.c **** *
   5:Generated_Source\PSoC4/CapSense_Processing.c **** * \brief
   6:Generated_Source\PSoC4/CapSense_Processing.c **** *   This file provides the source code for the Data Processing module APIs
   7:Generated_Source\PSoC4/CapSense_Processing.c **** *   of the Component. The Data Processing module is responsible for the
   8:Generated_Source\PSoC4/CapSense_Processing.c **** *   low level raw counts processing provided by the sensing module, maintaining
   9:Generated_Source\PSoC4/CapSense_Processing.c **** *   baseline and difference values and performing high-level widget processing
  10:Generated_Source\PSoC4/CapSense_Processing.c **** *   like updating button status or calculating slider position.
  11:Generated_Source\PSoC4/CapSense_Processing.c **** *
  12:Generated_Source\PSoC4/CapSense_Processing.c **** * \see CapSense v5.0 Datasheet
  13:Generated_Source\PSoC4/CapSense_Processing.c **** *
  14:Generated_Source\PSoC4/CapSense_Processing.c **** *//*****************************************************************************
  15:Generated_Source\PSoC4/CapSense_Processing.c **** * Copyright (2016-2017), Cypress Semiconductor Corporation.
  16:Generated_Source\PSoC4/CapSense_Processing.c **** ********************************************************************************
  17:Generated_Source\PSoC4/CapSense_Processing.c **** * This software is owned by Cypress Semiconductor Corporation (Cypress) and is
  18:Generated_Source\PSoC4/CapSense_Processing.c **** * protected by and subject to worldwide patent protection (United States and
  19:Generated_Source\PSoC4/CapSense_Processing.c **** * foreign), United States copyright laws and international treaty provisions.
  20:Generated_Source\PSoC4/CapSense_Processing.c **** * Cypress hereby grants to licensee a personal, non-exclusive, non-transferable
  21:Generated_Source\PSoC4/CapSense_Processing.c **** * license to copy, use, modify, create derivative works of, and compile the
  22:Generated_Source\PSoC4/CapSense_Processing.c **** * Cypress Source Code and derivative works for the sole purpose of creating
  23:Generated_Source\PSoC4/CapSense_Processing.c **** * custom software in support of licensee product to be used only in conjunction
  24:Generated_Source\PSoC4/CapSense_Processing.c **** * with a Cypress integrated circuit as specified in the applicable agreement.
  25:Generated_Source\PSoC4/CapSense_Processing.c **** * Any reproduction, modification, translation, compilation, or representation of
  26:Generated_Source\PSoC4/CapSense_Processing.c **** * this software except as specified above is prohibited without the express
  27:Generated_Source\PSoC4/CapSense_Processing.c **** * written permission of Cypress.
  28:Generated_Source\PSoC4/CapSense_Processing.c **** *
  29:Generated_Source\PSoC4/CapSense_Processing.c **** * Disclaimer: CYPRESS MAKES NO WARRANTY OF ANY KIND, EXPRESS OR IMPLIED, WITH
  30:Generated_Source\PSoC4/CapSense_Processing.c **** * REGARD TO THIS MATERIAL, INCLUDING, BUT NOT LIMITED TO, THE IMPLIED
ARM GAS  C:\Users\JANUSD~1\AppData\Local\Temp\ccK195Su.s 			page 2


  31:Generated_Source\PSoC4/CapSense_Processing.c **** * WARRANTIES OF MERCHANTABILITY AND FITNESS FOR A PARTICULAR PURPOSE.
  32:Generated_Source\PSoC4/CapSense_Processing.c **** * Cypress reserves the right to make changes without further notice to the
  33:Generated_Source\PSoC4/CapSense_Processing.c **** * materials described herein. Cypress does not assume any liability arising out
  34:Generated_Source\PSoC4/CapSense_Processing.c **** * of the application or use of any product or circuit described herein. Cypress
  35:Generated_Source\PSoC4/CapSense_Processing.c **** * does not authorize its products for use as critical components in life-support
  36:Generated_Source\PSoC4/CapSense_Processing.c **** * systems where a malfunction or failure may reasonably be expected to result in
  37:Generated_Source\PSoC4/CapSense_Processing.c **** * significant injury to the user. The inclusion of Cypress' product in a life-
  38:Generated_Source\PSoC4/CapSense_Processing.c **** * support systems application implies that the manufacturer assumes all risk of
  39:Generated_Source\PSoC4/CapSense_Processing.c **** * such use and in doing so indemnifies Cypress against all charges. Use may be
  40:Generated_Source\PSoC4/CapSense_Processing.c **** * limited by and subject to the applicable Cypress software license agreement.
  41:Generated_Source\PSoC4/CapSense_Processing.c **** *******************************************************************************/
  42:Generated_Source\PSoC4/CapSense_Processing.c **** 
  43:Generated_Source\PSoC4/CapSense_Processing.c **** #include "CyLib.h"
  44:Generated_Source\PSoC4/CapSense_Processing.c **** #include "cytypes.h"
  45:Generated_Source\PSoC4/CapSense_Processing.c **** #include "CapSense_Configuration.h"
  46:Generated_Source\PSoC4/CapSense_Processing.c **** #include "CapSense_Processing.h"
  47:Generated_Source\PSoC4/CapSense_Processing.c **** #include "CapSense_Filter.h"
  48:Generated_Source\PSoC4/CapSense_Processing.c **** 
  49:Generated_Source\PSoC4/CapSense_Processing.c **** #if (0u != CapSense_CENTROID_EN)
  50:Generated_Source\PSoC4/CapSense_Processing.c ****     #include "CapSense_Centroid_LL.h"
  51:Generated_Source\PSoC4/CapSense_Processing.c **** #endif /* (0 != CapSense_CENTROID_EN) */
  52:Generated_Source\PSoC4/CapSense_Processing.c **** 
  53:Generated_Source\PSoC4/CapSense_Processing.c **** #if (0 != (CapSense_CSD_AUTOTUNE & CapSense_CSD_SS_TH_EN))
  54:Generated_Source\PSoC4/CapSense_Processing.c ****     #include "CapSense_SmartSense_LL.h"
  55:Generated_Source\PSoC4/CapSense_Processing.c **** #endif /* (0 != (CapSense_CSD_AUTOTUNE & CapSense_CSD_SS_TH_EN)) */
  56:Generated_Source\PSoC4/CapSense_Processing.c **** 
  57:Generated_Source\PSoC4/CapSense_Processing.c **** #if (CapSense_ENABLE == CapSense_SELF_TEST_EN)
  58:Generated_Source\PSoC4/CapSense_Processing.c ****     #include "CapSense_SelfTest.h"
  59:Generated_Source\PSoC4/CapSense_Processing.c **** #endif
  60:Generated_Source\PSoC4/CapSense_Processing.c **** 
  61:Generated_Source\PSoC4/CapSense_Processing.c **** #if (CapSense_ENABLE == CapSense_CENTROID_5X5_CSD_EN)
  62:Generated_Source\PSoC4/CapSense_Processing.c ****     #include "CapSense_AdvancedCentroid_LL.h"
  63:Generated_Source\PSoC4/CapSense_Processing.c **** #endif
  64:Generated_Source\PSoC4/CapSense_Processing.c **** 
  65:Generated_Source\PSoC4/CapSense_Processing.c **** #if (CapSense_ENABLE == CapSense_POS_ADAPTIVE_IIR_FILTER_EN)
  66:Generated_Source\PSoC4/CapSense_Processing.c ****     #include "CapSense_AdaptiveFilter_LL.h"
  67:Generated_Source\PSoC4/CapSense_Processing.c **** #endif
  68:Generated_Source\PSoC4/CapSense_Processing.c **** 
  69:Generated_Source\PSoC4/CapSense_Processing.c **** #if(CapSense_ENABLE == CapSense_BALLISTIC_MULTIPLIER_EN)
  70:Generated_Source\PSoC4/CapSense_Processing.c ****     #include "CapSense_Gesture.h"
  71:Generated_Source\PSoC4/CapSense_Processing.c **** #endif
  72:Generated_Source\PSoC4/CapSense_Processing.c **** 
  73:Generated_Source\PSoC4/CapSense_Processing.c **** /**************************************************************************************************
  74:Generated_Source\PSoC4/CapSense_Processing.c **** * Local definition
  75:Generated_Source\PSoC4/CapSense_Processing.c **** ***************************************************************************************************
  76:Generated_Source\PSoC4/CapSense_Processing.c **** 
  77:Generated_Source\PSoC4/CapSense_Processing.c **** /* UINT32 constant with all odd bits set. It is used by the processing function of the Proximity wi
  78:Generated_Source\PSoC4/CapSense_Processing.c **** *  determine type of the status bit: odd bits report proximity status; even bits report touch statu
  79:Generated_Source\PSoC4/CapSense_Processing.c **** */
  80:Generated_Source\PSoC4/CapSense_Processing.c **** #define UINT32_ODD_BITS_CONST       (0x55555555u)
  81:Generated_Source\PSoC4/CapSense_Processing.c **** 
  82:Generated_Source\PSoC4/CapSense_Processing.c **** /* Default value for the Off Debounce counter when the Off Debounce is disabled */
  83:Generated_Source\PSoC4/CapSense_Processing.c **** #define DEFAULT_OFF_DEBOUNCE_VALUE  (1u)
  84:Generated_Source\PSoC4/CapSense_Processing.c **** #define PERCENTAGE_100              (100u)
  85:Generated_Source\PSoC4/CapSense_Processing.c **** #define TEMP_BUFFER_MSB_SHIFT       (16)
  86:Generated_Source\PSoC4/CapSense_Processing.c **** 
  87:Generated_Source\PSoC4/CapSense_Processing.c **** /**************************************************************************************************
ARM GAS  C:\Users\JANUSD~1\AppData\Local\Temp\ccK195Su.s 			page 3


  88:Generated_Source\PSoC4/CapSense_Processing.c **** * Local variables
  89:Generated_Source\PSoC4/CapSense_Processing.c **** ***************************************************************************************************
  90:Generated_Source\PSoC4/CapSense_Processing.c **** #if (0u != CapSense_CSX_MULTIPHASE_TX_EN)
  91:Generated_Source\PSoC4/CapSense_Processing.c ****     static uint16 deconvRowData[CapSense_CSX_MAX_TX_PHASE_LENGTH];
  92:Generated_Source\PSoC4/CapSense_Processing.c **** #endif
  93:Generated_Source\PSoC4/CapSense_Processing.c **** 
  94:Generated_Source\PSoC4/CapSense_Processing.c **** 
  95:Generated_Source\PSoC4/CapSense_Processing.c **** /**************************************************************************************************
  96:Generated_Source\PSoC4/CapSense_Processing.c **** * Static Function Prototypes
  97:Generated_Source\PSoC4/CapSense_Processing.c **** ***************************************************************************************************
  98:Generated_Source\PSoC4/CapSense_Processing.c **** /**
  99:Generated_Source\PSoC4/CapSense_Processing.c **** * \cond SECTION_C_INTERNAL
 100:Generated_Source\PSoC4/CapSense_Processing.c **** * \addtogroup group_c_internal
 101:Generated_Source\PSoC4/CapSense_Processing.c **** * \{
 102:Generated_Source\PSoC4/CapSense_Processing.c **** */
 103:Generated_Source\PSoC4/CapSense_Processing.c **** #if (0u != CapSense_TOTAL_LINEAR_SLIDERS)
 104:Generated_Source\PSoC4/CapSense_Processing.c ****     static CY_INLINE void DpUpdateLinSlider(
 105:Generated_Source\PSoC4/CapSense_Processing.c ****                         const uint16 newPos[], uint32 numTouches,
 106:Generated_Source\PSoC4/CapSense_Processing.c ****                         CapSense_FLASH_WD_STRUCT const *ptrFlashWdgt,
 107:Generated_Source\PSoC4/CapSense_Processing.c ****                         CapSense_RAM_WD_SLIDER_STRUCT *ptrRamWdgt);
 108:Generated_Source\PSoC4/CapSense_Processing.c **** #endif /* #if (0u != CapSense_TOTAL_LINEAR_SLIDERS) */
 109:Generated_Source\PSoC4/CapSense_Processing.c **** 
 110:Generated_Source\PSoC4/CapSense_Processing.c **** #if (0u != CapSense_TOTAL_RADIAL_SLIDERS)
 111:Generated_Source\PSoC4/CapSense_Processing.c ****     static CY_INLINE void DpUpdateRadSlider(
 112:Generated_Source\PSoC4/CapSense_Processing.c ****                         const uint16 newPos[], uint32 numTouches,
 113:Generated_Source\PSoC4/CapSense_Processing.c ****                         CapSense_FLASH_WD_STRUCT const * ptrFlashWdgt,
 114:Generated_Source\PSoC4/CapSense_Processing.c ****                         CapSense_RAM_WD_SLIDER_STRUCT *ptrRamWdgt);
 115:Generated_Source\PSoC4/CapSense_Processing.c **** #endif /* #if (0u != CapSense_TOTAL_RADIAL_SLIDERS) */
 116:Generated_Source\PSoC4/CapSense_Processing.c **** 
 117:Generated_Source\PSoC4/CapSense_Processing.c **** #if (0u != CapSense_CSD_TOUCHPAD_WIDGET_EN)
 118:Generated_Source\PSoC4/CapSense_Processing.c ****     static CY_INLINE void CapSense_DpInitCsdTouchpad(CapSense_FLASH_WD_STRUCT const * ptrFlashWdgt)
 119:Generated_Source\PSoC4/CapSense_Processing.c **** #endif /* #if (0u != CapSense_CSD_TOUCHPAD_WIDGET_EN) */
 120:Generated_Source\PSoC4/CapSense_Processing.c **** 
 121:Generated_Source\PSoC4/CapSense_Processing.c **** #if (0u != CapSense_CSX_TOUCHPAD_WIDGET_EN)
 122:Generated_Source\PSoC4/CapSense_Processing.c ****     static CY_INLINE void CapSense_DpInitCsxTouchpad(CapSense_FLASH_WD_STRUCT const * ptrFlashWdgt)
 123:Generated_Source\PSoC4/CapSense_Processing.c **** #endif /* #if (0u != CapSense_CSX_TOUCHPAD_WIDGET_EN) */
 124:Generated_Source\PSoC4/CapSense_Processing.c **** 
 125:Generated_Source\PSoC4/CapSense_Processing.c **** #if (0u != CapSense_SLIDER_WIDGET_EN)
 126:Generated_Source\PSoC4/CapSense_Processing.c ****     static CY_INLINE void CapSense_DpInitSlider(CapSense_FLASH_WD_STRUCT const * ptrFlashWdgt);
 127:Generated_Source\PSoC4/CapSense_Processing.c **** #endif /* #if (0u != CapSense_SLIDER_WIDGET_EN) */
 128:Generated_Source\PSoC4/CapSense_Processing.c **** 
 129:Generated_Source\PSoC4/CapSense_Processing.c **** #if (0u != CapSense_CSD_MATRIX_WIDGET_EN)
 130:Generated_Source\PSoC4/CapSense_Processing.c ****     static CY_INLINE void CapSense_DpInitCsdMatrix(CapSense_FLASH_WD_STRUCT const * ptrFlashWdgt);
 131:Generated_Source\PSoC4/CapSense_Processing.c **** #endif /* #if (0u != CapSense_CSD_MATRIX_WIDGET_EN) */
 132:Generated_Source\PSoC4/CapSense_Processing.c **** 
 133:Generated_Source\PSoC4/CapSense_Processing.c **** /** \}
 134:Generated_Source\PSoC4/CapSense_Processing.c **** * \endcond */
 135:Generated_Source\PSoC4/CapSense_Processing.c **** 
 136:Generated_Source\PSoC4/CapSense_Processing.c **** #if (0u != CapSense_CSD_TOUCHPAD_WIDGET_EN)
 137:Generated_Source\PSoC4/CapSense_Processing.c **** /*******************************************************************************
 138:Generated_Source\PSoC4/CapSense_Processing.c **** * Function Name: CapSense_DpInitCsdTouchpad
 139:Generated_Source\PSoC4/CapSense_Processing.c **** ****************************************************************************//**
 140:Generated_Source\PSoC4/CapSense_Processing.c **** *
 141:Generated_Source\PSoC4/CapSense_Processing.c **** * \brief
 142:Generated_Source\PSoC4/CapSense_Processing.c **** *  Performs initialization of the CSD touchpad widget.
 143:Generated_Source\PSoC4/CapSense_Processing.c **** *   - Resets the position data to NONE
 144:Generated_Source\PSoC4/CapSense_Processing.c **** *   - Initializes the position filter history if enabled.
ARM GAS  C:\Users\JANUSD~1\AppData\Local\Temp\ccK195Su.s 			page 4


 145:Generated_Source\PSoC4/CapSense_Processing.c **** *
 146:Generated_Source\PSoC4/CapSense_Processing.c **** * \details
 147:Generated_Source\PSoC4/CapSense_Processing.c **** *  The position data is always reset to the CapSense_TOUCHPAD_POS_NONE value.
 148:Generated_Source\PSoC4/CapSense_Processing.c **** *  The same happens to the position filter history data if enabled.
 149:Generated_Source\PSoC4/CapSense_Processing.c **** *
 150:Generated_Source\PSoC4/CapSense_Processing.c **** *******************************************************************************/
 151:Generated_Source\PSoC4/CapSense_Processing.c **** static CY_INLINE void CapSense_DpInitCsdTouchpad(CapSense_FLASH_WD_STRUCT const * ptrFlashWdgt)
 152:Generated_Source\PSoC4/CapSense_Processing.c **** {
 153:Generated_Source\PSoC4/CapSense_Processing.c ****     #if (CapSense_ENABLE == CapSense_CENTROID_5X5_CSD_EN)
 154:Generated_Source\PSoC4/CapSense_Processing.c ****         uint32 touchIndex;
 155:Generated_Source\PSoC4/CapSense_Processing.c ****     #endif
 156:Generated_Source\PSoC4/CapSense_Processing.c **** 
 157:Generated_Source\PSoC4/CapSense_Processing.c ****     CapSense_RAM_WD_CSD_TOUCHPAD_STRUCT *ptrWdTouchpad;
 158:Generated_Source\PSoC4/CapSense_Processing.c **** 
 159:Generated_Source\PSoC4/CapSense_Processing.c ****     #if (0u != CapSense_POSITION_FILTER_EN)
 160:Generated_Source\PSoC4/CapSense_Processing.c ****         CapSense_TOUCHPAD_POS_HISTORY_STRUCT *ptrHistory;
 161:Generated_Source\PSoC4/CapSense_Processing.c ****     #endif  /* #if (0u != CapSense_POSITION_FILTER_EN) */
 162:Generated_Source\PSoC4/CapSense_Processing.c **** 
 163:Generated_Source\PSoC4/CapSense_Processing.c ****     #if (0u != CapSense_POS_ADAPTIVE_IIR_FILTER_EN)
 164:Generated_Source\PSoC4/CapSense_Processing.c ****         ADAPTIVE_FILTER_CONTEXT_STRUCT adpContext;
 165:Generated_Source\PSoC4/CapSense_Processing.c ****     #endif /* (0u != CapSense_POS_ADAPTIVE_IIR_FILTER_EN) */
 166:Generated_Source\PSoC4/CapSense_Processing.c **** 
 167:Generated_Source\PSoC4/CapSense_Processing.c ****     ptrWdTouchpad = ptrFlashWdgt->ptr2WdgtRam;
 168:Generated_Source\PSoC4/CapSense_Processing.c **** 
 169:Generated_Source\PSoC4/CapSense_Processing.c ****     /* Reset position data */
 170:Generated_Source\PSoC4/CapSense_Processing.c ****     #if (CapSense_ENABLE == CapSense_CENTROID_5X5_CSD_EN)
 171:Generated_Source\PSoC4/CapSense_Processing.c ****         #if (CapSense_ENABLE == CapSense_CENTROID_3X3_CSD_EN)
 172:Generated_Source\PSoC4/CapSense_Processing.c ****             if (0u != (ptrFlashWdgt->staticConfig & CapSense_CENTROID_5X5_MASK))
 173:Generated_Source\PSoC4/CapSense_Processing.c ****             {
 174:Generated_Source\PSoC4/CapSense_Processing.c ****         #endif
 175:Generated_Source\PSoC4/CapSense_Processing.c **** 
 176:Generated_Source\PSoC4/CapSense_Processing.c ****         ptrWdTouchpad->position.touchNum = 0u;
 177:Generated_Source\PSoC4/CapSense_Processing.c **** 
 178:Generated_Source\PSoC4/CapSense_Processing.c ****         #if (0u != CapSense_POSITION_FILTER_EN)
 179:Generated_Source\PSoC4/CapSense_Processing.c ****             ptrHistory = ptrFlashWdgt->ptr2PosHistory;
 180:Generated_Source\PSoC4/CapSense_Processing.c ****         #endif /* (0u != CapSense_POSITION_FILTER_EN) */
 181:Generated_Source\PSoC4/CapSense_Processing.c **** 
 182:Generated_Source\PSoC4/CapSense_Processing.c ****         for (touchIndex = 0u; touchIndex < ADVANCED_CENTROID_MAX_TOUCHES; touchIndex++)
 183:Generated_Source\PSoC4/CapSense_Processing.c ****         {
 184:Generated_Source\PSoC4/CapSense_Processing.c ****             ptrWdTouchpad->position.pos[touchIndex].x = ADVANCED_CENTROID_POSITION_NONE;
 185:Generated_Source\PSoC4/CapSense_Processing.c ****             ptrWdTouchpad->position.pos[touchIndex].y = ADVANCED_CENTROID_POSITION_NONE;
 186:Generated_Source\PSoC4/CapSense_Processing.c ****             ptrWdTouchpad->position.pos[touchIndex].zX = ADVANCED_CENTROID_POSITION_NONE;
 187:Generated_Source\PSoC4/CapSense_Processing.c ****             ptrWdTouchpad->position.pos[touchIndex].zY = ADVANCED_CENTROID_POSITION_NONE;
 188:Generated_Source\PSoC4/CapSense_Processing.c **** 
 189:Generated_Source\PSoC4/CapSense_Processing.c ****             /* Clear position filter history data if available */
 190:Generated_Source\PSoC4/CapSense_Processing.c ****             #if (0u != CapSense_POSITION_FILTER_EN)
 191:Generated_Source\PSoC4/CapSense_Processing.c ****                 if (NULL != ptrHistory)
 192:Generated_Source\PSoC4/CapSense_Processing.c ****                 {
 193:Generated_Source\PSoC4/CapSense_Processing.c ****                     CapSense_InitPosFiltersDd(&ptrHistory[touchIndex], CapSense_TOUCHPAD_POS_NONE, 
 194:Generated_Source\PSoC4/CapSense_Processing.c ****                     #if (0u != CapSense_POS_ADAPTIVE_IIR_FILTER_EN)
 195:Generated_Source\PSoC4/CapSense_Processing.c ****                         AdaptiveFilter_Initialize(&ptrWdTouchpad->aiirConfig, &adpContext);
 196:Generated_Source\PSoC4/CapSense_Processing.c ****                         ptrHistory[touchIndex].xPos.posAIIRCoeff = adpContext.coefficient;
 197:Generated_Source\PSoC4/CapSense_Processing.c ****                         ptrHistory[touchIndex].yPos.posAIIRCoeff = adpContext.coefficient;
 198:Generated_Source\PSoC4/CapSense_Processing.c ****                     #endif /* (0u != CapSense_POS_ADAPTIVE_IIR_FILTER_EN) */
 199:Generated_Source\PSoC4/CapSense_Processing.c ****                 }
 200:Generated_Source\PSoC4/CapSense_Processing.c ****             #endif /* (0u != CapSense_POSITION_FILTER_EN) */
 201:Generated_Source\PSoC4/CapSense_Processing.c ****         }
ARM GAS  C:\Users\JANUSD~1\AppData\Local\Temp\ccK195Su.s 			page 5


 202:Generated_Source\PSoC4/CapSense_Processing.c **** 
 203:Generated_Source\PSoC4/CapSense_Processing.c ****         #if (CapSense_ENABLE == CapSense_CENTROID_3X3_CSD_EN)
 204:Generated_Source\PSoC4/CapSense_Processing.c ****             }
 205:Generated_Source\PSoC4/CapSense_Processing.c ****         #endif
 206:Generated_Source\PSoC4/CapSense_Processing.c ****     #endif
 207:Generated_Source\PSoC4/CapSense_Processing.c **** 
 208:Generated_Source\PSoC4/CapSense_Processing.c ****     #if (CapSense_ENABLE == CapSense_CENTROID_3X3_CSD_EN)
 209:Generated_Source\PSoC4/CapSense_Processing.c ****         if (0u != (ptrFlashWdgt->staticConfig & CapSense_CENTROID_3X3_MASK))
 210:Generated_Source\PSoC4/CapSense_Processing.c ****         {
 211:Generated_Source\PSoC4/CapSense_Processing.c ****             ptrWdTouchpad->posX = CapSense_TOUCHPAD_POS_NONE;
 212:Generated_Source\PSoC4/CapSense_Processing.c ****             ptrWdTouchpad->posY = CapSense_TOUCHPAD_POS_NONE;
 213:Generated_Source\PSoC4/CapSense_Processing.c **** 
 214:Generated_Source\PSoC4/CapSense_Processing.c ****             /* Clear position filter history data if available */
 215:Generated_Source\PSoC4/CapSense_Processing.c ****             #if (0u != CapSense_POSITION_FILTER_EN)
 216:Generated_Source\PSoC4/CapSense_Processing.c ****                 ptrHistory = ptrFlashWdgt->ptr2PosHistory;
 217:Generated_Source\PSoC4/CapSense_Processing.c ****                 CapSense_InitPosFiltersDd(ptrHistory, CapSense_TOUCHPAD_POS_NONE, CapSense_TOUCHPAD
 218:Generated_Source\PSoC4/CapSense_Processing.c **** 
 219:Generated_Source\PSoC4/CapSense_Processing.c ****                 #if (0u != CapSense_POS_ADAPTIVE_IIR_FILTER_EN)
 220:Generated_Source\PSoC4/CapSense_Processing.c ****                     if (NULL != ptrHistory)
 221:Generated_Source\PSoC4/CapSense_Processing.c ****                     {
 222:Generated_Source\PSoC4/CapSense_Processing.c ****                         AdaptiveFilter_Initialize(&ptrWdTouchpad->aiirConfig, &adpContext);
 223:Generated_Source\PSoC4/CapSense_Processing.c ****                         ptrHistory->xPos.posAIIRCoeff = adpContext.coefficient;
 224:Generated_Source\PSoC4/CapSense_Processing.c ****                         ptrHistory->yPos.posAIIRCoeff = adpContext.coefficient;
 225:Generated_Source\PSoC4/CapSense_Processing.c ****                     }
 226:Generated_Source\PSoC4/CapSense_Processing.c ****                 #endif /* (0u != CapSense_POS_ADAPTIVE_IIR_FILTER_EN) */
 227:Generated_Source\PSoC4/CapSense_Processing.c ****             #endif /* (0u != CapSense_POSITION_FILTER_EN) */
 228:Generated_Source\PSoC4/CapSense_Processing.c ****         }
 229:Generated_Source\PSoC4/CapSense_Processing.c ****     #endif
 230:Generated_Source\PSoC4/CapSense_Processing.c **** }
 231:Generated_Source\PSoC4/CapSense_Processing.c **** #endif /* #if (0u != CapSense_CSD_TOUCHPAD_WIDGET_EN) */
 232:Generated_Source\PSoC4/CapSense_Processing.c **** 
 233:Generated_Source\PSoC4/CapSense_Processing.c **** #if (0u != CapSense_CSX_TOUCHPAD_WIDGET_EN)
 234:Generated_Source\PSoC4/CapSense_Processing.c **** /*******************************************************************************
 235:Generated_Source\PSoC4/CapSense_Processing.c **** * Function Name: CapSense_DpInitCsxTouchpad
 236:Generated_Source\PSoC4/CapSense_Processing.c **** ****************************************************************************//**
 237:Generated_Source\PSoC4/CapSense_Processing.c **** *
 238:Generated_Source\PSoC4/CapSense_Processing.c **** * \brief
 239:Generated_Source\PSoC4/CapSense_Processing.c **** *  Performs initialization of the CSX touchpad widget i.e. Resets the position data to NONE.
 240:Generated_Source\PSoC4/CapSense_Processing.c **** *
 241:Generated_Source\PSoC4/CapSense_Processing.c **** * \details
 242:Generated_Source\PSoC4/CapSense_Processing.c **** *  The position data is always reset to the CapSense_TOUCHPAD_POS_NONE value.
 243:Generated_Source\PSoC4/CapSense_Processing.c **** *
 244:Generated_Source\PSoC4/CapSense_Processing.c **** *******************************************************************************/
 245:Generated_Source\PSoC4/CapSense_Processing.c **** static CY_INLINE void CapSense_DpInitCsxTouchpad(CapSense_FLASH_WD_STRUCT const * ptrFlashWdgt)
 246:Generated_Source\PSoC4/CapSense_Processing.c **** {
 247:Generated_Source\PSoC4/CapSense_Processing.c ****     CapSense_RAM_WD_CSX_TOUCHPAD_STRUCT *ptrWdTouchpad;
 248:Generated_Source\PSoC4/CapSense_Processing.c **** 
 249:Generated_Source\PSoC4/CapSense_Processing.c ****     #if (0u != CapSense_POSITION_FILTER_EN)
 250:Generated_Source\PSoC4/CapSense_Processing.c ****         uint32 touchIndex;
 251:Generated_Source\PSoC4/CapSense_Processing.c ****         CapSense_TOUCHPAD_POS_HISTORY_STRUCT *ptrHistory;
 252:Generated_Source\PSoC4/CapSense_Processing.c ****     #endif  /* #if (0u != CapSense_POSITION_FILTER_EN) */
 253:Generated_Source\PSoC4/CapSense_Processing.c **** 
 254:Generated_Source\PSoC4/CapSense_Processing.c ****     #if (0u != CapSense_POS_ADAPTIVE_IIR_FILTER_EN)
 255:Generated_Source\PSoC4/CapSense_Processing.c ****         ADAPTIVE_FILTER_CONTEXT_STRUCT adpContext;
 256:Generated_Source\PSoC4/CapSense_Processing.c ****     #endif /* (0u != CapSense_POS_ADAPTIVE_IIR_FILTER_EN) */
 257:Generated_Source\PSoC4/CapSense_Processing.c **** 
 258:Generated_Source\PSoC4/CapSense_Processing.c ****     ptrWdTouchpad = ptrFlashWdgt->ptr2WdgtRam;
ARM GAS  C:\Users\JANUSD~1\AppData\Local\Temp\ccK195Su.s 			page 6


 259:Generated_Source\PSoC4/CapSense_Processing.c **** 
 260:Generated_Source\PSoC4/CapSense_Processing.c ****     #if (0u != CapSense_POSITION_FILTER_EN)
 261:Generated_Source\PSoC4/CapSense_Processing.c ****         ptrHistory = ptrFlashWdgt->ptr2PosHistory;
 262:Generated_Source\PSoC4/CapSense_Processing.c ****     #endif /* (0u != CapSense_POSITION_FILTER_EN) */
 263:Generated_Source\PSoC4/CapSense_Processing.c **** 
 264:Generated_Source\PSoC4/CapSense_Processing.c ****     /* Reset position data for finger */
 265:Generated_Source\PSoC4/CapSense_Processing.c ****     ptrWdTouchpad->touch[0u].x = CapSense_TOUCHPAD_POS_NONE;
 266:Generated_Source\PSoC4/CapSense_Processing.c ****     ptrWdTouchpad->touch[0u].y = CapSense_TOUCHPAD_POS_NONE;
 267:Generated_Source\PSoC4/CapSense_Processing.c ****     ptrWdTouchpad->touch[0u].z = LO8(CapSense_TOUCHPAD_POS_NONE);
 268:Generated_Source\PSoC4/CapSense_Processing.c **** 
 269:Generated_Source\PSoC4/CapSense_Processing.c ****     #if (CapSense_CSX_MAX_FINGERS > 1u)
 270:Generated_Source\PSoC4/CapSense_Processing.c ****         ptrWdTouchpad->touch[1u].x = CapSense_TOUCHPAD_POS_NONE;
 271:Generated_Source\PSoC4/CapSense_Processing.c ****         ptrWdTouchpad->touch[1u].y = CapSense_TOUCHPAD_POS_NONE;
 272:Generated_Source\PSoC4/CapSense_Processing.c ****         ptrWdTouchpad->touch[1u].z = LO8(CapSense_TOUCHPAD_POS_NONE);
 273:Generated_Source\PSoC4/CapSense_Processing.c ****     #endif /* #if (CapSense_CSX_MAX_FINGERS > 1u) */
 274:Generated_Source\PSoC4/CapSense_Processing.c **** 
 275:Generated_Source\PSoC4/CapSense_Processing.c ****     #if (CapSense_CSX_MAX_FINGERS > 2u)
 276:Generated_Source\PSoC4/CapSense_Processing.c ****         ptrWdTouchpad->touch[2u].x = CapSense_TOUCHPAD_POS_NONE;
 277:Generated_Source\PSoC4/CapSense_Processing.c ****         ptrWdTouchpad->touch[2u].y = CapSense_TOUCHPAD_POS_NONE;
 278:Generated_Source\PSoC4/CapSense_Processing.c ****         ptrWdTouchpad->touch[2u].z = LO8(CapSense_TOUCHPAD_POS_NONE);
 279:Generated_Source\PSoC4/CapSense_Processing.c ****     #endif /* #if (CapSense_CSX_MAX_FINGERS > 2u) */
 280:Generated_Source\PSoC4/CapSense_Processing.c **** 
 281:Generated_Source\PSoC4/CapSense_Processing.c ****     #if (0u != CapSense_POSITION_FILTER_EN)
 282:Generated_Source\PSoC4/CapSense_Processing.c ****         for (touchIndex = 0u; touchIndex < CapSense_CSX_MAX_FINGERS; touchIndex++)
 283:Generated_Source\PSoC4/CapSense_Processing.c ****         {
 284:Generated_Source\PSoC4/CapSense_Processing.c ****             if (NULL != ptrHistory)
 285:Generated_Source\PSoC4/CapSense_Processing.c ****             {
 286:Generated_Source\PSoC4/CapSense_Processing.c ****                 /* Clear position filter history data if available */
 287:Generated_Source\PSoC4/CapSense_Processing.c ****                 CapSense_InitPosFiltersDd(&ptrHistory[touchIndex], CapSense_TOUCHPAD_POS_NONE, CapS
 288:Generated_Source\PSoC4/CapSense_Processing.c ****                 #if (0u != CapSense_POS_ADAPTIVE_IIR_FILTER_EN)
 289:Generated_Source\PSoC4/CapSense_Processing.c ****                     AdaptiveFilter_Initialize(&ptrWdTouchpad->aiirConfig, &adpContext);
 290:Generated_Source\PSoC4/CapSense_Processing.c ****                     ptrHistory[touchIndex].xPos.posAIIRCoeff = adpContext.coefficient;
 291:Generated_Source\PSoC4/CapSense_Processing.c ****                     ptrHistory[touchIndex].yPos.posAIIRCoeff = adpContext.coefficient;
 292:Generated_Source\PSoC4/CapSense_Processing.c ****                 #endif /* (0u != CapSense_POS_ADAPTIVE_IIR_FILTER_EN) */
 293:Generated_Source\PSoC4/CapSense_Processing.c ****             }
 294:Generated_Source\PSoC4/CapSense_Processing.c ****         }
 295:Generated_Source\PSoC4/CapSense_Processing.c ****     #endif /* (0u != CapSense_POSITION_FILTER_EN) */
 296:Generated_Source\PSoC4/CapSense_Processing.c **** }
 297:Generated_Source\PSoC4/CapSense_Processing.c **** #endif /* #if (0u != CapSense_CSX_TOUCHPAD_WIDGET_EN) */
 298:Generated_Source\PSoC4/CapSense_Processing.c **** 
 299:Generated_Source\PSoC4/CapSense_Processing.c **** #if (0u != CapSense_SLIDER_WIDGET_EN)
 300:Generated_Source\PSoC4/CapSense_Processing.c **** /*******************************************************************************
 301:Generated_Source\PSoC4/CapSense_Processing.c **** * Function Name: CapSense_DpInitSlider
 302:Generated_Source\PSoC4/CapSense_Processing.c **** ****************************************************************************//**
 303:Generated_Source\PSoC4/CapSense_Processing.c **** *
 304:Generated_Source\PSoC4/CapSense_Processing.c **** * \brief
 305:Generated_Source\PSoC4/CapSense_Processing.c **** *  Performs initialization of the Radial and Linear Slider widget.
 306:Generated_Source\PSoC4/CapSense_Processing.c **** *   - Resets the position data to NONE
 307:Generated_Source\PSoC4/CapSense_Processing.c **** *   - Initializes the position filter history to NONE if enabled.
 308:Generated_Source\PSoC4/CapSense_Processing.c **** *
 309:Generated_Source\PSoC4/CapSense_Processing.c **** * \details
 310:Generated_Source\PSoC4/CapSense_Processing.c **** *  Position data is always reset to the CapSense_SLIDER_POS_NONE value.
 311:Generated_Source\PSoC4/CapSense_Processing.c **** *  The same happens to the position filter history data if enabled.
 312:Generated_Source\PSoC4/CapSense_Processing.c **** *
 313:Generated_Source\PSoC4/CapSense_Processing.c **** *******************************************************************************/
 314:Generated_Source\PSoC4/CapSense_Processing.c **** static CY_INLINE void CapSense_DpInitSlider(CapSense_FLASH_WD_STRUCT const * ptrFlashWdgt)
 315:Generated_Source\PSoC4/CapSense_Processing.c **** {
ARM GAS  C:\Users\JANUSD~1\AppData\Local\Temp\ccK195Su.s 			page 7


 316:Generated_Source\PSoC4/CapSense_Processing.c ****     uint32 idx;
 317:Generated_Source\PSoC4/CapSense_Processing.c ****     CapSense_RAM_WD_SLIDER_STRUCT *ptrWdSlider;
 318:Generated_Source\PSoC4/CapSense_Processing.c **** 
 319:Generated_Source\PSoC4/CapSense_Processing.c ****     #if (0u != CapSense_POSITION_FILTER_EN)
 320:Generated_Source\PSoC4/CapSense_Processing.c ****         CapSense_SLIDER_POS_HISTORY_STRUCT *ptrHistory;
 321:Generated_Source\PSoC4/CapSense_Processing.c ****     #endif /* #if (0u != CapSense_POSITION_FILTER_EN) */
 322:Generated_Source\PSoC4/CapSense_Processing.c **** 
 323:Generated_Source\PSoC4/CapSense_Processing.c ****     #if (0u != CapSense_POS_ADAPTIVE_IIR_FILTER_EN)
 324:Generated_Source\PSoC4/CapSense_Processing.c ****         ADAPTIVE_FILTER_CONTEXT_STRUCT context;
 325:Generated_Source\PSoC4/CapSense_Processing.c ****     #endif /* (0u != CapSense_POS_ADAPTIVE_IIR_FILTER_EN) */
 326:Generated_Source\PSoC4/CapSense_Processing.c **** 
 327:Generated_Source\PSoC4/CapSense_Processing.c ****     ptrWdSlider = ptrFlashWdgt->ptr2WdgtRam;
 328:Generated_Source\PSoC4/CapSense_Processing.c **** 
 329:Generated_Source\PSoC4/CapSense_Processing.c ****     /* Reset slider position data to NONE */
 330:Generated_Source\PSoC4/CapSense_Processing.c ****     for (idx = 0u; idx < CapSense_NUM_CENTROIDS; idx++)
 331:Generated_Source\PSoC4/CapSense_Processing.c ****     {
 332:Generated_Source\PSoC4/CapSense_Processing.c ****         ptrWdSlider->position[idx] = CapSense_SLIDER_POS_NONE;
 333:Generated_Source\PSoC4/CapSense_Processing.c **** 
 334:Generated_Source\PSoC4/CapSense_Processing.c ****         #if (0u != CapSense_POSITION_FILTER_EN)
 335:Generated_Source\PSoC4/CapSense_Processing.c ****             ptrHistory = ptrFlashWdgt->ptr2PosHistory;
 336:Generated_Source\PSoC4/CapSense_Processing.c ****             if (NULL != ptrHistory)
 337:Generated_Source\PSoC4/CapSense_Processing.c ****             {
 338:Generated_Source\PSoC4/CapSense_Processing.c ****                 CapSense_InitPosFiltersSd(&ptrHistory[idx], CapSense_SLIDER_POS_NONE);
 339:Generated_Source\PSoC4/CapSense_Processing.c ****                 #if (0u != CapSense_POS_ADAPTIVE_IIR_FILTER_EN)
 340:Generated_Source\PSoC4/CapSense_Processing.c ****                     AdaptiveFilter_Initialize(&ptrWdSlider->aiirConfig, &context);
 341:Generated_Source\PSoC4/CapSense_Processing.c ****                     ptrHistory->posAIIRCoeff = context.coefficient;
 342:Generated_Source\PSoC4/CapSense_Processing.c ****                 #endif /* (0u != CapSense_POS_ADAPTIVE_IIR_FILTER_EN) */
 343:Generated_Source\PSoC4/CapSense_Processing.c ****             }
 344:Generated_Source\PSoC4/CapSense_Processing.c **** 
 345:Generated_Source\PSoC4/CapSense_Processing.c ****         #endif /* #if (0u != CapSense_POSITION_FILTER_EN) */
 346:Generated_Source\PSoC4/CapSense_Processing.c ****     }
 347:Generated_Source\PSoC4/CapSense_Processing.c **** }
 348:Generated_Source\PSoC4/CapSense_Processing.c **** #endif /* #if (0u != CapSense_SLIDER_WIDGET_EN) */
 349:Generated_Source\PSoC4/CapSense_Processing.c **** 
 350:Generated_Source\PSoC4/CapSense_Processing.c **** #if (0u != CapSense_CSD_MATRIX_WIDGET_EN)
 351:Generated_Source\PSoC4/CapSense_Processing.c **** /*******************************************************************************
 352:Generated_Source\PSoC4/CapSense_Processing.c **** * Function Name: CapSense_DpInitCsdMatrix
 353:Generated_Source\PSoC4/CapSense_Processing.c **** ****************************************************************************//**
 354:Generated_Source\PSoC4/CapSense_Processing.c **** *
 355:Generated_Source\PSoC4/CapSense_Processing.c **** * \brief
 356:Generated_Source\PSoC4/CapSense_Processing.c **** *  Performs initialization of the CSD Matrix Buttons widget.
 357:Generated_Source\PSoC4/CapSense_Processing.c **** *   - Resets the active button position data to NONE.
 358:Generated_Source\PSoC4/CapSense_Processing.c **** *
 359:Generated_Source\PSoC4/CapSense_Processing.c **** * \details
 360:Generated_Source\PSoC4/CapSense_Processing.c **** *  Position data is always reset to the CapSense_MATRIX_POS_NONE value.
 361:Generated_Source\PSoC4/CapSense_Processing.c **** *
 362:Generated_Source\PSoC4/CapSense_Processing.c **** *******************************************************************************/
 363:Generated_Source\PSoC4/CapSense_Processing.c **** static CY_INLINE void CapSense_DpInitCsdMatrix(CapSense_FLASH_WD_STRUCT const * ptrFlashWdgt)
 364:Generated_Source\PSoC4/CapSense_Processing.c **** {
 365:Generated_Source\PSoC4/CapSense_Processing.c ****     CapSense_RAM_WD_CSD_MATRIX_STRUCT *ptrRamWdgt;
 366:Generated_Source\PSoC4/CapSense_Processing.c **** 
 367:Generated_Source\PSoC4/CapSense_Processing.c ****     ptrRamWdgt = (CapSense_RAM_WD_CSD_MATRIX_STRUCT *)ptrFlashWdgt->ptr2WdgtRam;
 368:Generated_Source\PSoC4/CapSense_Processing.c **** 
 369:Generated_Source\PSoC4/CapSense_Processing.c ****     /* Reset sensor id, row and col registers in data structure */
 370:Generated_Source\PSoC4/CapSense_Processing.c ****     ptrRamWdgt->posRow   = CapSense_MATRIX_POS_NONE;
 371:Generated_Source\PSoC4/CapSense_Processing.c ****     ptrRamWdgt->posCol   = CapSense_MATRIX_POS_NONE;
 372:Generated_Source\PSoC4/CapSense_Processing.c ****     ptrRamWdgt->posSnsId = CapSense_MATRIX_POS_NONE;
ARM GAS  C:\Users\JANUSD~1\AppData\Local\Temp\ccK195Su.s 			page 8


 373:Generated_Source\PSoC4/CapSense_Processing.c **** }
 374:Generated_Source\PSoC4/CapSense_Processing.c **** #endif /* #if (0u != CapSense_CSD_MATRIX_WIDGET_EN) */
 375:Generated_Source\PSoC4/CapSense_Processing.c **** 
 376:Generated_Source\PSoC4/CapSense_Processing.c **** /*******************************************************************************
 377:Generated_Source\PSoC4/CapSense_Processing.c **** * Function Name: CapSense_DpInitialize
 378:Generated_Source\PSoC4/CapSense_Processing.c **** ****************************************************************************//**
 379:Generated_Source\PSoC4/CapSense_Processing.c **** *
 380:Generated_Source\PSoC4/CapSense_Processing.c **** * \brief
 381:Generated_Source\PSoC4/CapSense_Processing.c **** *  Performs initialization of the data processing FW module:
 382:Generated_Source\PSoC4/CapSense_Processing.c **** *   - Resets the de-bounce counters of all the widgets
 383:Generated_Source\PSoC4/CapSense_Processing.c **** *   - Resets the position filter history for slider and touchpad widgets
 384:Generated_Source\PSoC4/CapSense_Processing.c **** *   - Clears widget and sensor statuses
 385:Generated_Source\PSoC4/CapSense_Processing.c **** *   - Enables all the widgets.
 386:Generated_Source\PSoC4/CapSense_Processing.c **** *
 387:Generated_Source\PSoC4/CapSense_Processing.c **** * \details
 388:Generated_Source\PSoC4/CapSense_Processing.c **** *  The Button and Matrix Button widgets have individual de-bounce counter per
 389:Generated_Source\PSoC4/CapSense_Processing.c **** *  sensor for the CSD widgets and per node for the CSX widgets.
 390:Generated_Source\PSoC4/CapSense_Processing.c **** *
 391:Generated_Source\PSoC4/CapSense_Processing.c **** *  The Slider and Touchpad widgets have a single de-bounce counter per widget.
 392:Generated_Source\PSoC4/CapSense_Processing.c **** *
 393:Generated_Source\PSoC4/CapSense_Processing.c **** *  The Proximity widget has two de-bounce counters per sensor. One for the
 394:Generated_Source\PSoC4/CapSense_Processing.c **** *  proximity event and second for the touch event.
 395:Generated_Source\PSoC4/CapSense_Processing.c **** *
 396:Generated_Source\PSoC4/CapSense_Processing.c **** *  All debounce counters during initialization are set to the value of the
 397:Generated_Source\PSoC4/CapSense_Processing.c **** *  onDebounce widget parameter.
 398:Generated_Source\PSoC4/CapSense_Processing.c **** *
 399:Generated_Source\PSoC4/CapSense_Processing.c **** *******************************************************************************/
 400:Generated_Source\PSoC4/CapSense_Processing.c **** void CapSense_DpInitialize(void)
 401:Generated_Source\PSoC4/CapSense_Processing.c **** {
  28              		.loc 1 401 0
  29              		.cfi_startproc
  30              		@ args = 0, pretend = 0, frame = 0
  31              		@ frame_needed = 0, uses_anonymous_args = 0
  32 0000 F8B5     		push	{r3, r4, r5, r6, r7, lr}
  33              		.cfi_def_cfa_offset 24
  34              		.cfi_offset 3, -24
  35              		.cfi_offset 4, -20
  36              		.cfi_offset 5, -16
  37              		.cfi_offset 6, -12
  38              		.cfi_offset 7, -8
  39              		.cfi_offset 14, -4
  40              	.LVL0:
 402:Generated_Source\PSoC4/CapSense_Processing.c ****     uint32 wdgtId;
 403:Generated_Source\PSoC4/CapSense_Processing.c ****     CapSense_WD_TYPE_ENUM widgetType;
 404:Generated_Source\PSoC4/CapSense_Processing.c ****     CapSense_RAM_WD_BASE_STRUCT * ptrRamWdgt;
 405:Generated_Source\PSoC4/CapSense_Processing.c ****     CapSense_FLASH_WD_STRUCT const * ptrFlashWdgt;
 406:Generated_Source\PSoC4/CapSense_Processing.c **** 
 407:Generated_Source\PSoC4/CapSense_Processing.c ****     for (wdgtId = 0u; wdgtId < CapSense_WDGT_STATUS_WORDS; wdgtId++)
  41              		.loc 1 407 0
  42 0002 0023     		movs	r3, #0
  43 0004 09E0     		b	.L2
  44              	.LVL1:
  45              	.L3:
 408:Generated_Source\PSoC4/CapSense_Processing.c ****     {
 409:Generated_Source\PSoC4/CapSense_Processing.c ****         /* Clear widget status */
 410:Generated_Source\PSoC4/CapSense_Processing.c ****         CapSense_dsRam.wdgtStatus[wdgtId] = 0u;
  46              		.loc 1 410 0 discriminator 3
ARM GAS  C:\Users\JANUSD~1\AppData\Local\Temp\ccK195Su.s 			page 9


  47 0006 1C49     		ldr	r1, .L12
  48 0008 1A1D     		adds	r2, r3, #4
  49 000a 9200     		lsls	r2, r2, #2
  50 000c 8818     		adds	r0, r1, r2
  51 000e 0024     		movs	r4, #0
  52 0010 4460     		str	r4, [r0, #4]
 411:Generated_Source\PSoC4/CapSense_Processing.c **** 
 412:Generated_Source\PSoC4/CapSense_Processing.c ****         /* Enable all the widgets */
 413:Generated_Source\PSoC4/CapSense_Processing.c ****         CapSense_dsRam.wdgtEnable[wdgtId] = 0xFFFFFFFFLu;
  53              		.loc 1 413 0 discriminator 3
  54 0012 0120     		movs	r0, #1
  55 0014 4042     		rsbs	r0, r0, #0
  56 0016 5050     		str	r0, [r2, r1]
 407:Generated_Source\PSoC4/CapSense_Processing.c ****     {
  57              		.loc 1 407 0 discriminator 3
  58 0018 0133     		adds	r3, r3, #1
  59              	.LVL2:
  60              	.L2:
 407:Generated_Source\PSoC4/CapSense_Processing.c ****     {
  61              		.loc 1 407 0 is_stmt 0 discriminator 1
  62 001a 002B     		cmp	r3, #0
  63 001c F3D0     		beq	.L3
  64 001e 174C     		ldr	r4, .L12+4
  65 0020 0123     		movs	r3, #1
  66              	.LVL3:
  67 0022 24E0     		b	.L4
  68              	.LVL4:
  69              	.L11:
 414:Generated_Source\PSoC4/CapSense_Processing.c **** 
 415:Generated_Source\PSoC4/CapSense_Processing.c ****         /* Set all the widgets to working state if the Self-Test is not enabled */
 416:Generated_Source\PSoC4/CapSense_Processing.c ****         #if (0u != CapSense_SELF_TEST_EN)
 417:Generated_Source\PSoC4/CapSense_Processing.c ****             CapSense_dsRam.wdgtWorking[wdgtId] = 0xFFFFFFFFLu;
 418:Generated_Source\PSoC4/CapSense_Processing.c ****         #endif /* #if (0u == CapSense_SELF_TEST_EN) */
 419:Generated_Source\PSoC4/CapSense_Processing.c ****     }
 420:Generated_Source\PSoC4/CapSense_Processing.c **** 
 421:Generated_Source\PSoC4/CapSense_Processing.c ****     ptrFlashWdgt = CapSense_dsFlash.wdgtArray;
 422:Generated_Source\PSoC4/CapSense_Processing.c **** 
 423:Generated_Source\PSoC4/CapSense_Processing.c ****     for (wdgtId = CapSense_TOTAL_WIDGETS; wdgtId-- > 0u; )
 424:Generated_Source\PSoC4/CapSense_Processing.c ****     {
 425:Generated_Source\PSoC4/CapSense_Processing.c ****         ptrRamWdgt = (CapSense_RAM_WD_BASE_STRUCT *)ptrFlashWdgt->ptr2WdgtRam;
  70              		.loc 1 425 0 is_stmt 1
  71 0024 6068     		ldr	r0, [r4, #4]
  72              	.LVL5:
 426:Generated_Source\PSoC4/CapSense_Processing.c ****         widgetType = (CapSense_WD_TYPE_ENUM)ptrFlashWdgt->wdgtType;
  73              		.loc 1 426 0
  74 0026 A37E     		ldrb	r3, [r4, #26]
  75              	.LVL6:
 427:Generated_Source\PSoC4/CapSense_Processing.c **** 
 428:Generated_Source\PSoC4/CapSense_Processing.c ****         /* Clear all sensor statuses */
 429:Generated_Source\PSoC4/CapSense_Processing.c ****         CapSense_dsRam.snsStatus[wdgtId] = 0u;
  76              		.loc 1 429 0
  77 0028 134A     		ldr	r2, .L12
  78 002a 5219     		adds	r2, r2, r5
  79 002c 0021     		movs	r1, #0
  80 002e 1176     		strb	r1, [r2, #24]
 430:Generated_Source\PSoC4/CapSense_Processing.c **** 
 431:Generated_Source\PSoC4/CapSense_Processing.c ****         /* Reset de-bounce counters */
ARM GAS  C:\Users\JANUSD~1\AppData\Local\Temp\ccK195Su.s 			page 10


 432:Generated_Source\PSoC4/CapSense_Processing.c ****         switch (widgetType)
  81              		.loc 1 432 0
  82 0030 023B     		subs	r3, r3, #2
  83              	.LVL7:
  84 0032 DBB2     		uxtb	r3, r3
  85              	.LVL8:
  86 0034 012B     		cmp	r3, #1
  87 0036 18D8     		bhi	.L5
 433:Generated_Source\PSoC4/CapSense_Processing.c ****         {
 434:Generated_Source\PSoC4/CapSense_Processing.c ****         #if (0u != CapSense_MATRIX_WIDGET_EN)
 435:Generated_Source\PSoC4/CapSense_Processing.c ****             case CapSense_WD_MATRIX_BUTTON_E:
 436:Generated_Source\PSoC4/CapSense_Processing.c ****                 #if (0u != CapSense_CSD_MATRIX_WIDGET_EN)
 437:Generated_Source\PSoC4/CapSense_Processing.c ****                     if (CapSense_SENSE_METHOD_CSD_E == CapSense_GET_SENSE_METHOD(ptrFlashWdgt))
 438:Generated_Source\PSoC4/CapSense_Processing.c ****                     {
 439:Generated_Source\PSoC4/CapSense_Processing.c ****                         CapSense_DpInitCsdMatrix(ptrFlashWdgt);
 440:Generated_Source\PSoC4/CapSense_Processing.c ****                     }
 441:Generated_Source\PSoC4/CapSense_Processing.c ****                 #endif /* #if (0u != CapSense_CSD_MATRIX_WIDGET_EN) */
 442:Generated_Source\PSoC4/CapSense_Processing.c **** 
 443:Generated_Source\PSoC4/CapSense_Processing.c ****                 if (NULL != ptrFlashWdgt->ptr2DebounceArr)
 444:Generated_Source\PSoC4/CapSense_Processing.c ****                 {
 445:Generated_Source\PSoC4/CapSense_Processing.c ****                     /* Initialize array of debounce counters */
 446:Generated_Source\PSoC4/CapSense_Processing.c ****                     (void)memset(ptrFlashWdgt->ptr2DebounceArr,
 447:Generated_Source\PSoC4/CapSense_Processing.c ****                                  (int32)ptrRamWdgt->onDebounce,
 448:Generated_Source\PSoC4/CapSense_Processing.c ****                                  (size_t)ptrFlashWdgt->totalNumSns);
 449:Generated_Source\PSoC4/CapSense_Processing.c ****                 }
 450:Generated_Source\PSoC4/CapSense_Processing.c ****                 break;
 451:Generated_Source\PSoC4/CapSense_Processing.c ****         #endif /* #if (0u != CapSense_MATRIX_WIDGET_EN) */
 452:Generated_Source\PSoC4/CapSense_Processing.c **** 
 453:Generated_Source\PSoC4/CapSense_Processing.c ****         #if (0u != CapSense_BUTTON_WIDGET_EN)
 454:Generated_Source\PSoC4/CapSense_Processing.c ****             case CapSense_WD_BUTTON_E:
 455:Generated_Source\PSoC4/CapSense_Processing.c ****                 if (NULL != ptrFlashWdgt->ptr2DebounceArr)
 456:Generated_Source\PSoC4/CapSense_Processing.c ****                 {
 457:Generated_Source\PSoC4/CapSense_Processing.c ****                     /* Initialize array of debounce counters */
 458:Generated_Source\PSoC4/CapSense_Processing.c ****                     (void)memset(ptrFlashWdgt->ptr2DebounceArr,
 459:Generated_Source\PSoC4/CapSense_Processing.c ****                                  (int32)ptrRamWdgt->onDebounce,
 460:Generated_Source\PSoC4/CapSense_Processing.c ****                                  (size_t)ptrFlashWdgt->totalNumSns);
 461:Generated_Source\PSoC4/CapSense_Processing.c ****                 }
 462:Generated_Source\PSoC4/CapSense_Processing.c ****                 break;
 463:Generated_Source\PSoC4/CapSense_Processing.c ****         #endif /* #if (0u != CapSense_BUTTON_WIDGET_EN) */
 464:Generated_Source\PSoC4/CapSense_Processing.c **** 
 465:Generated_Source\PSoC4/CapSense_Processing.c ****         #if (0u != CapSense_SLIDER_WIDGET_EN)
 466:Generated_Source\PSoC4/CapSense_Processing.c ****             case CapSense_WD_LINEAR_SLIDER_E:
 467:Generated_Source\PSoC4/CapSense_Processing.c ****             case CapSense_WD_RADIAL_SLIDER_E:
 468:Generated_Source\PSoC4/CapSense_Processing.c ****                 if (NULL != ptrFlashWdgt->ptr2DebounceArr)
  88              		.loc 1 468 0
  89 0038 2369     		ldr	r3, [r4, #16]
  90 003a 002B     		cmp	r3, #0
  91 003c 01D0     		beq	.L7
 469:Generated_Source\PSoC4/CapSense_Processing.c ****                 {
 470:Generated_Source\PSoC4/CapSense_Processing.c ****                     /* Initialize single debounce counter of slider */
 471:Generated_Source\PSoC4/CapSense_Processing.c ****                     *(uint8 *)(ptrFlashWdgt->ptr2DebounceArr) = ptrRamWdgt->onDebounce;
  92              		.loc 1 471 0
  93 003e C279     		ldrb	r2, [r0, #7]
  94 0040 1A70     		strb	r2, [r3]
  95              	.L7:
  96              	.LVL9:
  97              	.LBB4:
ARM GAS  C:\Users\JANUSD~1\AppData\Local\Temp\ccK195Su.s 			page 11


  98              	.LBB5:
 327:Generated_Source\PSoC4/CapSense_Processing.c **** 
  99              		.loc 1 327 0
 100 0042 6768     		ldr	r7, [r4, #4]
 101              	.LVL10:
 330:Generated_Source\PSoC4/CapSense_Processing.c ****     {
 102              		.loc 1 330 0
 103 0044 0026     		movs	r6, #0
 104 0046 0EE0     		b	.L8
 105              	.LVL11:
 106              	.L10:
 332:Generated_Source\PSoC4/CapSense_Processing.c **** 
 107              		.loc 1 332 0
 108 0048 331D     		adds	r3, r6, #4
 109 004a 5B00     		lsls	r3, r3, #1
 110 004c FB18     		adds	r3, r7, r3
 111 004e 0122     		movs	r2, #1
 112 0050 5242     		rsbs	r2, r2, #0
 113 0052 DA80     		strh	r2, [r3, #6]
 335:Generated_Source\PSoC4/CapSense_Processing.c ****             if (NULL != ptrHistory)
 114              		.loc 1 335 0
 115 0054 606A     		ldr	r0, [r4, #36]
 116              	.LVL12:
 336:Generated_Source\PSoC4/CapSense_Processing.c ****             {
 117              		.loc 1 336 0
 118 0056 0028     		cmp	r0, #0
 119 0058 04D0     		beq	.L9
 338:Generated_Source\PSoC4/CapSense_Processing.c ****                 #if (0u != CapSense_POS_ADAPTIVE_IIR_FILTER_EN)
 120              		.loc 1 338 0
 121 005a 7300     		lsls	r3, r6, #1
 122 005c C018     		adds	r0, r0, r3
 123              	.LVL13:
 124 005e 0849     		ldr	r1, .L12+8
 125 0060 FFF7FEFF 		bl	CapSense_InitPosFiltersSd
 126              	.LVL14:
 127              	.L9:
 330:Generated_Source\PSoC4/CapSense_Processing.c ****     {
 128              		.loc 1 330 0
 129 0064 0136     		adds	r6, r6, #1
 130              	.LVL15:
 131              	.L8:
 132 0066 002E     		cmp	r6, #0
 133 0068 EED0     		beq	.L10
 134              	.LVL16:
 135              	.L5:
 136              	.LBE5:
 137              	.LBE4:
 472:Generated_Source\PSoC4/CapSense_Processing.c ****                 }
 473:Generated_Source\PSoC4/CapSense_Processing.c **** 
 474:Generated_Source\PSoC4/CapSense_Processing.c ****                 CapSense_DpInitSlider(ptrFlashWdgt);
 475:Generated_Source\PSoC4/CapSense_Processing.c **** 
 476:Generated_Source\PSoC4/CapSense_Processing.c ****                 break;
 477:Generated_Source\PSoC4/CapSense_Processing.c ****         #endif /* #if (0u != CapSense_SLIDER_WIDGET_EN) */
 478:Generated_Source\PSoC4/CapSense_Processing.c **** 
 479:Generated_Source\PSoC4/CapSense_Processing.c ****         #if (0u != CapSense_TOUCHPAD_WIDGET_EN)
 480:Generated_Source\PSoC4/CapSense_Processing.c ****             case CapSense_WD_TOUCHPAD_E:
 481:Generated_Source\PSoC4/CapSense_Processing.c ****                 if (NULL != ptrFlashWdgt->ptr2DebounceArr)
ARM GAS  C:\Users\JANUSD~1\AppData\Local\Temp\ccK195Su.s 			page 12


 482:Generated_Source\PSoC4/CapSense_Processing.c ****                 {
 483:Generated_Source\PSoC4/CapSense_Processing.c ****                     /* Initialize single debounce counter of touchpad */
 484:Generated_Source\PSoC4/CapSense_Processing.c ****                     *(uint8 *)(ptrFlashWdgt->ptr2DebounceArr) = ptrRamWdgt->onDebounce;
 485:Generated_Source\PSoC4/CapSense_Processing.c ****                 }
 486:Generated_Source\PSoC4/CapSense_Processing.c **** 
 487:Generated_Source\PSoC4/CapSense_Processing.c ****                 #if (0u != CapSense_CSD_TOUCHPAD_WIDGET_EN)
 488:Generated_Source\PSoC4/CapSense_Processing.c ****                     if (CapSense_SENSE_METHOD_CSD_E == CapSense_GET_SENSE_METHOD(ptrFlashWdgt))
 489:Generated_Source\PSoC4/CapSense_Processing.c ****                     {
 490:Generated_Source\PSoC4/CapSense_Processing.c ****                         CapSense_DpInitCsdTouchpad(ptrFlashWdgt);
 491:Generated_Source\PSoC4/CapSense_Processing.c ****                     }
 492:Generated_Source\PSoC4/CapSense_Processing.c ****                 #endif /* #if (0u != CapSense_CSD_TOUCHPAD_WIDGET_EN) */
 493:Generated_Source\PSoC4/CapSense_Processing.c **** 
 494:Generated_Source\PSoC4/CapSense_Processing.c ****                 #if (0u != CapSense_CSX_TOUCHPAD_WIDGET_EN)
 495:Generated_Source\PSoC4/CapSense_Processing.c ****                     if (CapSense_SENSE_METHOD_CSX_E == CapSense_GET_SENSE_METHOD(ptrFlashWdgt))
 496:Generated_Source\PSoC4/CapSense_Processing.c ****                     {
 497:Generated_Source\PSoC4/CapSense_Processing.c ****                         CapSense_DpInitCsxTouchpad(ptrFlashWdgt);
 498:Generated_Source\PSoC4/CapSense_Processing.c ****                     }
 499:Generated_Source\PSoC4/CapSense_Processing.c ****                 #endif /* #if (0u != CapSense_CSX_TOUCHPAD_WIDGET_EN) */
 500:Generated_Source\PSoC4/CapSense_Processing.c **** 
 501:Generated_Source\PSoC4/CapSense_Processing.c ****                 break;
 502:Generated_Source\PSoC4/CapSense_Processing.c ****         #endif /* #if (0u != CapSense_TOUCHPAD_WIDGET_EN) */
 503:Generated_Source\PSoC4/CapSense_Processing.c **** 
 504:Generated_Source\PSoC4/CapSense_Processing.c ****         #if (0u != CapSense_PROXIMITY_WIDGET_EN)
 505:Generated_Source\PSoC4/CapSense_Processing.c ****             case CapSense_WD_PROXIMITY_E:
 506:Generated_Source\PSoC4/CapSense_Processing.c ****                 if (NULL != ptrFlashWdgt->ptr2DebounceArr)
 507:Generated_Source\PSoC4/CapSense_Processing.c ****                 {
 508:Generated_Source\PSoC4/CapSense_Processing.c ****                     /* Proximity widgets have 2 de-bounce counters per sensor.
 509:Generated_Source\PSoC4/CapSense_Processing.c ****                      * Therefore the number of sensors is multiplied by 2.
 510:Generated_Source\PSoC4/CapSense_Processing.c ****                      */
 511:Generated_Source\PSoC4/CapSense_Processing.c ****                    (void)memset(ptrFlashWdgt->ptr2DebounceArr,
 512:Generated_Source\PSoC4/CapSense_Processing.c ****                                 (int32)ptrRamWdgt->onDebounce,
 513:Generated_Source\PSoC4/CapSense_Processing.c ****                                 (size_t)ptrFlashWdgt->totalNumSns * 2u);
 514:Generated_Source\PSoC4/CapSense_Processing.c ****                 }
 515:Generated_Source\PSoC4/CapSense_Processing.c ****                 break;
 516:Generated_Source\PSoC4/CapSense_Processing.c ****         #endif /* #if (0u != CapSense_PROXIMITY_WIDGET_EN) */
 517:Generated_Source\PSoC4/CapSense_Processing.c **** 
 518:Generated_Source\PSoC4/CapSense_Processing.c ****             default:
 519:Generated_Source\PSoC4/CapSense_Processing.c ****                 break;
 520:Generated_Source\PSoC4/CapSense_Processing.c ****         }
 521:Generated_Source\PSoC4/CapSense_Processing.c **** 
 522:Generated_Source\PSoC4/CapSense_Processing.c ****         /* Move to next widget */
 523:Generated_Source\PSoC4/CapSense_Processing.c ****         ptrFlashWdgt++;
 138              		.loc 1 523 0
 139 006a 2C34     		adds	r4, r4, #44
 140              	.LVL17:
 423:Generated_Source\PSoC4/CapSense_Processing.c ****     {
 141              		.loc 1 423 0
 142 006c 2B00     		movs	r3, r5
 143              	.LVL18:
 144              	.L4:
 423:Generated_Source\PSoC4/CapSense_Processing.c ****     {
 145              		.loc 1 423 0 is_stmt 0 discriminator 1
 146 006e 5D1E     		subs	r5, r3, #1
 147              	.LVL19:
 148 0070 002B     		cmp	r3, #0
 149 0072 D7D1     		bne	.L11
 524:Generated_Source\PSoC4/CapSense_Processing.c ****     }
ARM GAS  C:\Users\JANUSD~1\AppData\Local\Temp\ccK195Su.s 			page 13


 525:Generated_Source\PSoC4/CapSense_Processing.c **** }
 150              		.loc 1 525 0 is_stmt 1
 151              		@ sp needed
 152              	.LVL20:
 153              	.LVL21:
 154 0074 F8BD     		pop	{r3, r4, r5, r6, r7, pc}
 155              	.L13:
 156 0076 C046     		.align	2
 157              	.L12:
 158 0078 00000000 		.word	CapSense_dsRam
 159 007c 00000000 		.word	CapSense_dsFlash
 160 0080 FFFF0000 		.word	65535
 161              		.cfi_endproc
 162              	.LFE3:
 163              		.size	CapSense_DpInitialize, .-CapSense_DpInitialize
 164              		.section	.text.CapSense_DpUpdateDifferences,"ax",%progbits
 165              		.align	2
 166              		.global	CapSense_DpUpdateDifferences
 167              		.code	16
 168              		.thumb_func
 169              		.type	CapSense_DpUpdateDifferences, %function
 170              	CapSense_DpUpdateDifferences:
 171              	.LFB7:
 526:Generated_Source\PSoC4/CapSense_Processing.c **** 
 527:Generated_Source\PSoC4/CapSense_Processing.c **** #if (0u != CapSense_TOTAL_CSX_WIDGETS)
 528:Generated_Source\PSoC4/CapSense_Processing.c **** /*******************************************************************************
 529:Generated_Source\PSoC4/CapSense_Processing.c **** * Function Name: CapSense_DpProcessCsxWidgetRawCounts
 530:Generated_Source\PSoC4/CapSense_Processing.c **** ****************************************************************************//**
 531:Generated_Source\PSoC4/CapSense_Processing.c **** *
 532:Generated_Source\PSoC4/CapSense_Processing.c **** * \brief
 533:Generated_Source\PSoC4/CapSense_Processing.c **** *  Performs default processing of the CSX raw counts.
 534:Generated_Source\PSoC4/CapSense_Processing.c **** *
 535:Generated_Source\PSoC4/CapSense_Processing.c **** * \details
 536:Generated_Source\PSoC4/CapSense_Processing.c **** *  Performs default processing of the CSX raw counts:
 537:Generated_Source\PSoC4/CapSense_Processing.c **** *   - Run Filters
 538:Generated_Source\PSoC4/CapSense_Processing.c **** *   - Update Baselines
 539:Generated_Source\PSoC4/CapSense_Processing.c **** *   - Update Differences
 540:Generated_Source\PSoC4/CapSense_Processing.c **** *   - Update Status.
 541:Generated_Source\PSoC4/CapSense_Processing.c **** *  The same process is applied to all the sensors of the specified widget.
 542:Generated_Source\PSoC4/CapSense_Processing.c **** *
 543:Generated_Source\PSoC4/CapSense_Processing.c **** * \param ptrFlashWdgt The pointer to the Flash widget structure.
 544:Generated_Source\PSoC4/CapSense_Processing.c **** *
 545:Generated_Source\PSoC4/CapSense_Processing.c **** * \return
 546:Generated_Source\PSoC4/CapSense_Processing.c **** *  Returns the status of the specified widget processing operation:
 547:Generated_Source\PSoC4/CapSense_Processing.c **** *  - CYRET_SUCCESS if operation was successfully completed;
 548:Generated_Source\PSoC4/CapSense_Processing.c **** *  - CapSense_PROCESS_BASELINE_FAILED if baseline processing of any
 549:Generated_Source\PSoC4/CapSense_Processing.c **** *    sensor of the specified widget failed. The result is concatenated with the index
 550:Generated_Source\PSoC4/CapSense_Processing.c **** *    of failed sensor.
 551:Generated_Source\PSoC4/CapSense_Processing.c **** *
 552:Generated_Source\PSoC4/CapSense_Processing.c **** *******************************************************************************/
 553:Generated_Source\PSoC4/CapSense_Processing.c **** uint32 CapSense_DpProcessCsxWidgetRawCounts(CapSense_FLASH_WD_STRUCT const *ptrFlashWdgt)
 554:Generated_Source\PSoC4/CapSense_Processing.c **** {
 555:Generated_Source\PSoC4/CapSense_Processing.c ****     uint32 result = CYRET_SUCCESS;
 556:Generated_Source\PSoC4/CapSense_Processing.c ****     uint32 widgetType;
 557:Generated_Source\PSoC4/CapSense_Processing.c ****     uint32 snsCount;
 558:Generated_Source\PSoC4/CapSense_Processing.c ****     CapSense_RAM_SNS_STRUCT *ptrSnsTmp;
 559:Generated_Source\PSoC4/CapSense_Processing.c ****     CapSense_RAM_WD_BASE_STRUCT *ptrRamWdgt;
ARM GAS  C:\Users\JANUSD~1\AppData\Local\Temp\ccK195Su.s 			page 14


 560:Generated_Source\PSoC4/CapSense_Processing.c **** 
 561:Generated_Source\PSoC4/CapSense_Processing.c ****     #if (CapSense_ENABLE == CapSense_RC_FILTER_EN)
 562:Generated_Source\PSoC4/CapSense_Processing.c ****         CapSense_PTR_FILTER_VARIANT fltrHistV;
 563:Generated_Source\PSoC4/CapSense_Processing.c **** 
 564:Generated_Source\PSoC4/CapSense_Processing.c ****         fltrHistV.ptr = ptrFlashWdgt->ptr2FltrHistory;
 565:Generated_Source\PSoC4/CapSense_Processing.c ****     #endif /* #if (CapSense_ENABLE == CapSense_RC_FILTER_EN) */
 566:Generated_Source\PSoC4/CapSense_Processing.c **** 
 567:Generated_Source\PSoC4/CapSense_Processing.c ****     ptrSnsTmp = ptrFlashWdgt->ptr2SnsRam;
 568:Generated_Source\PSoC4/CapSense_Processing.c ****     snsCount = ptrFlashWdgt->totalNumSns;
 569:Generated_Source\PSoC4/CapSense_Processing.c ****     ptrRamWdgt = (CapSense_RAM_WD_BASE_STRUCT *)ptrFlashWdgt->ptr2WdgtRam;
 570:Generated_Source\PSoC4/CapSense_Processing.c ****     widgetType = ptrFlashWdgt->wdgtType;
 571:Generated_Source\PSoC4/CapSense_Processing.c **** 
 572:Generated_Source\PSoC4/CapSense_Processing.c ****     /* Run deconvolution algorithm for the widgets with multiphase TX support */
 573:Generated_Source\PSoC4/CapSense_Processing.c ****     #if (0u != CapSense_CSX_MULTIPHASE_TX_EN)
 574:Generated_Source\PSoC4/CapSense_Processing.c ****         if (0u != (ptrFlashWdgt->staticConfig & CapSense_MULTIPHASE_TX_MASK))
 575:Generated_Source\PSoC4/CapSense_Processing.c ****         {
 576:Generated_Source\PSoC4/CapSense_Processing.c ****             CapSense_DpDeconvolution(ptrFlashWdgt);
 577:Generated_Source\PSoC4/CapSense_Processing.c ****         }
 578:Generated_Source\PSoC4/CapSense_Processing.c ****     #endif  /* #if (0u != CapSense_CSX_MULTIPHASE_TX_EN) */
 579:Generated_Source\PSoC4/CapSense_Processing.c **** 
 580:Generated_Source\PSoC4/CapSense_Processing.c ****     for (;snsCount-- > 0u;)
 581:Generated_Source\PSoC4/CapSense_Processing.c ****     {
 582:Generated_Source\PSoC4/CapSense_Processing.c ****         #if (CapSense_ENABLE == CapSense_RC_FILTER_EN)
 583:Generated_Source\PSoC4/CapSense_Processing.c ****             CapSense_FtRunEnabledFiltersInternal(fltrHistV, ptrSnsTmp, widgetType);
 584:Generated_Source\PSoC4/CapSense_Processing.c ****             #if (CapSense_ALP_FILTER_EN)
 585:Generated_Source\PSoC4/CapSense_Processing.c ****                 CapSense_ConfigRunALPInternal(fltrHistV, ptrRamWdgt, ptrSnsTmp, widgetType);
 586:Generated_Source\PSoC4/CapSense_Processing.c ****             #endif
 587:Generated_Source\PSoC4/CapSense_Processing.c ****         #endif /* #if (CapSense_ENABLE == CapSense_RC_FILTER_EN) */
 588:Generated_Source\PSoC4/CapSense_Processing.c **** 
 589:Generated_Source\PSoC4/CapSense_Processing.c ****         result = CapSense_FtUpdateBaseline(ptrRamWdgt, ptrSnsTmp, widgetType);
 590:Generated_Source\PSoC4/CapSense_Processing.c **** 
 591:Generated_Source\PSoC4/CapSense_Processing.c ****         #if (CapSense_ENABLE == CapSense_TST_BSLN_DUPLICATION_EN)
 592:Generated_Source\PSoC4/CapSense_Processing.c ****             if (CYRET_SUCCESS != result)
 593:Generated_Source\PSoC4/CapSense_Processing.c ****             {
 594:Generated_Source\PSoC4/CapSense_Processing.c ****                 result = snsCount | CapSense_PROCESS_BASELINE_FAILED;
 595:Generated_Source\PSoC4/CapSense_Processing.c ****             }
 596:Generated_Source\PSoC4/CapSense_Processing.c ****         #endif /* (CapSense_ENABLE == CapSense_TST_BSLN_DUPLICATION_EN) */
 597:Generated_Source\PSoC4/CapSense_Processing.c **** 
 598:Generated_Source\PSoC4/CapSense_Processing.c ****         CapSense_DpUpdateDifferences(ptrRamWdgt, ptrSnsTmp);
 599:Generated_Source\PSoC4/CapSense_Processing.c **** 
 600:Generated_Source\PSoC4/CapSense_Processing.c ****         /* Move pointers to the next sensor and filter history objects */
 601:Generated_Source\PSoC4/CapSense_Processing.c ****         ptrSnsTmp++;
 602:Generated_Source\PSoC4/CapSense_Processing.c **** 
 603:Generated_Source\PSoC4/CapSense_Processing.c ****         #if (CapSense_ENABLE == CapSense_RC_FILTER_EN)
 604:Generated_Source\PSoC4/CapSense_Processing.c ****             CapSense_INC_REG_FLTR_OBJ(fltrHistV);
 605:Generated_Source\PSoC4/CapSense_Processing.c ****         #endif /* #if (CapSense_ENABLE == CapSense_RC_FILTER_EN) */
 606:Generated_Source\PSoC4/CapSense_Processing.c ****     }
 607:Generated_Source\PSoC4/CapSense_Processing.c ****     return result;
 608:Generated_Source\PSoC4/CapSense_Processing.c **** }
 609:Generated_Source\PSoC4/CapSense_Processing.c **** 
 610:Generated_Source\PSoC4/CapSense_Processing.c **** /*******************************************************************************
 611:Generated_Source\PSoC4/CapSense_Processing.c **** * Function Name: CapSense_DpProcessCsxSensorRawCountsExt
 612:Generated_Source\PSoC4/CapSense_Processing.c **** ****************************************************************************//**
 613:Generated_Source\PSoC4/CapSense_Processing.c **** *
 614:Generated_Source\PSoC4/CapSense_Processing.c **** * \brief
 615:Generated_Source\PSoC4/CapSense_Processing.c **** *   Performs customized processing of the CSX sensor raw counts.
 616:Generated_Source\PSoC4/CapSense_Processing.c **** *
ARM GAS  C:\Users\JANUSD~1\AppData\Local\Temp\ccK195Su.s 			page 15


 617:Generated_Source\PSoC4/CapSense_Processing.c **** * \details
 618:Generated_Source\PSoC4/CapSense_Processing.c **** *   Performs customized processing of the CSX sensor raw counts.
 619:Generated_Source\PSoC4/CapSense_Processing.c **** *
 620:Generated_Source\PSoC4/CapSense_Processing.c **** *   If all bits are set at once the default processing order will take place.
 621:Generated_Source\PSoC4/CapSense_Processing.c **** *   For the custom order this API can be called multiple times and execute one task at a time.
 622:Generated_Source\PSoC4/CapSense_Processing.c **** *
 623:Generated_Source\PSoC4/CapSense_Processing.c **** * \param ptrFlashWdgt The pointer to the Flash Widget Object.
 624:Generated_Source\PSoC4/CapSense_Processing.c **** * \param curSnsPtr    The pointer to the specific RAM Sensor Object.
 625:Generated_Source\PSoC4/CapSense_Processing.c **** * \param fltrHistV    The pointer to the Filter History Object in RAM associated with specific sens
 626:Generated_Source\PSoC4/CapSense_Processing.c **** * \param mode         The bit-mask with the data processing tasks to be executed.
 627:Generated_Source\PSoC4/CapSense_Processing.c **** *   The mode parameters can take the following values:
 628:Generated_Source\PSoC4/CapSense_Processing.c **** *    - CapSense_PROCESS_FILTER     (0x01) Run Firmware Filter
 629:Generated_Source\PSoC4/CapSense_Processing.c **** *    - CapSense_PROCESS_BASELINE   (0x02) Update Baselines
 630:Generated_Source\PSoC4/CapSense_Processing.c **** *    - CapSense_PROCESS_DIFFCOUNTS (0x04) Update Difference Counts
 631:Generated_Source\PSoC4/CapSense_Processing.c **** *    - CapSense_PROCESS_ALL               Execute all tasks
 632:Generated_Source\PSoC4/CapSense_Processing.c **** *
 633:Generated_Source\PSoC4/CapSense_Processing.c **** * \return
 634:Generated_Source\PSoC4/CapSense_Processing.c **** *  Returns the status of the specified sensor processing operation:
 635:Generated_Source\PSoC4/CapSense_Processing.c **** *  - CYRET_SUCCESS if operation was successfully completed;
 636:Generated_Source\PSoC4/CapSense_Processing.c **** *  - CapSense_PROCESS_BASELINE_FAILED if baseline processing of any
 637:Generated_Source\PSoC4/CapSense_Processing.c **** *    sensor of the specified widget failed. The result is concatenated with the index
 638:Generated_Source\PSoC4/CapSense_Processing.c **** *    of failed sensor.
 639:Generated_Source\PSoC4/CapSense_Processing.c **** *
 640:Generated_Source\PSoC4/CapSense_Processing.c **** *******************************************************************************/
 641:Generated_Source\PSoC4/CapSense_Processing.c **** uint32 CapSense_DpProcessCsxSensorRawCountsExt(
 642:Generated_Source\PSoC4/CapSense_Processing.c ****                 CapSense_FLASH_WD_STRUCT const *ptrFlashWdgt,
 643:Generated_Source\PSoC4/CapSense_Processing.c ****                 CapSense_RAM_SNS_STRUCT *curSnsPtr,
 644:Generated_Source\PSoC4/CapSense_Processing.c ****                 CapSense_PTR_FILTER_VARIANT fltrHistV,
 645:Generated_Source\PSoC4/CapSense_Processing.c ****                 uint32 mode)
 646:Generated_Source\PSoC4/CapSense_Processing.c **** {
 647:Generated_Source\PSoC4/CapSense_Processing.c ****     uint32  result = CYRET_SUCCESS;
 648:Generated_Source\PSoC4/CapSense_Processing.c ****     uint32  widgetType;
 649:Generated_Source\PSoC4/CapSense_Processing.c ****     CapSense_RAM_WD_BASE_STRUCT *ptrRamWdgt;
 650:Generated_Source\PSoC4/CapSense_Processing.c **** 
 651:Generated_Source\PSoC4/CapSense_Processing.c ****     widgetType = ptrFlashWdgt->wdgtType;
 652:Generated_Source\PSoC4/CapSense_Processing.c ****     ptrRamWdgt = (CapSense_RAM_WD_BASE_STRUCT *)ptrFlashWdgt->ptr2WdgtRam;
 653:Generated_Source\PSoC4/CapSense_Processing.c **** 
 654:Generated_Source\PSoC4/CapSense_Processing.c ****     #if (CapSense_ENABLE == CapSense_RC_FILTER_EN)
 655:Generated_Source\PSoC4/CapSense_Processing.c ****         if (0u != (mode & CapSense_PROCESS_FILTER))
 656:Generated_Source\PSoC4/CapSense_Processing.c ****         {
 657:Generated_Source\PSoC4/CapSense_Processing.c ****             CapSense_FtRunEnabledFiltersInternal(fltrHistV, curSnsPtr, widgetType);
 658:Generated_Source\PSoC4/CapSense_Processing.c ****             #if (CapSense_ALP_FILTER_EN)
 659:Generated_Source\PSoC4/CapSense_Processing.c ****                 CapSense_ConfigRunALPInternal(fltrHistV, ptrRamWdgt, curSnsPtr, widgetType);
 660:Generated_Source\PSoC4/CapSense_Processing.c ****             #endif
 661:Generated_Source\PSoC4/CapSense_Processing.c ****         }
 662:Generated_Source\PSoC4/CapSense_Processing.c ****     #else
 663:Generated_Source\PSoC4/CapSense_Processing.c ****         (void)fltrHistV; /* This parameter is unused in such configurations */
 664:Generated_Source\PSoC4/CapSense_Processing.c ****     #endif /* #if (CapSense_ENABLE == CapSense_RC_FILTER_EN) */
 665:Generated_Source\PSoC4/CapSense_Processing.c **** 
 666:Generated_Source\PSoC4/CapSense_Processing.c ****     if (0u != (mode & CapSense_PROCESS_BASELINE))
 667:Generated_Source\PSoC4/CapSense_Processing.c ****     {
 668:Generated_Source\PSoC4/CapSense_Processing.c ****         result = CapSense_FtUpdateBaseline(ptrRamWdgt, curSnsPtr, widgetType);
 669:Generated_Source\PSoC4/CapSense_Processing.c ****     }
 670:Generated_Source\PSoC4/CapSense_Processing.c **** 
 671:Generated_Source\PSoC4/CapSense_Processing.c ****     if (0u != (mode & CapSense_PROCESS_DIFFCOUNTS))
 672:Generated_Source\PSoC4/CapSense_Processing.c ****     {
 673:Generated_Source\PSoC4/CapSense_Processing.c ****         CapSense_DpUpdateDifferences(ptrRamWdgt, curSnsPtr);
ARM GAS  C:\Users\JANUSD~1\AppData\Local\Temp\ccK195Su.s 			page 16


 674:Generated_Source\PSoC4/CapSense_Processing.c ****     }
 675:Generated_Source\PSoC4/CapSense_Processing.c ****     return result;
 676:Generated_Source\PSoC4/CapSense_Processing.c **** }
 677:Generated_Source\PSoC4/CapSense_Processing.c **** 
 678:Generated_Source\PSoC4/CapSense_Processing.c **** 
 679:Generated_Source\PSoC4/CapSense_Processing.c **** /*******************************************************************************
 680:Generated_Source\PSoC4/CapSense_Processing.c **** * Function Name: CapSense_DpProcessCsxWidgetStatus
 681:Generated_Source\PSoC4/CapSense_Processing.c **** ****************************************************************************//**
 682:Generated_Source\PSoC4/CapSense_Processing.c **** *
 683:Generated_Source\PSoC4/CapSense_Processing.c **** * \brief
 684:Generated_Source\PSoC4/CapSense_Processing.c **** *   Updates the status of the CSX widget in the Data Structure.
 685:Generated_Source\PSoC4/CapSense_Processing.c **** *
 686:Generated_Source\PSoC4/CapSense_Processing.c **** * \details
 687:Generated_Source\PSoC4/CapSense_Processing.c **** *  This API determines the type of widget and runs the appropriate function
 688:Generated_Source\PSoC4/CapSense_Processing.c **** *  that implements the status update algorithm for this type of widget.
 689:Generated_Source\PSoC4/CapSense_Processing.c **** *
 690:Generated_Source\PSoC4/CapSense_Processing.c **** *  When the widget-specific processing completes this API updates the snsStatus
 691:Generated_Source\PSoC4/CapSense_Processing.c **** *  and wdgtStatus registers in the data structure. The wdgtStatus register
 692:Generated_Source\PSoC4/CapSense_Processing.c **** *  is a bitmask were each bit corresponds to the specific widget identified by
 693:Generated_Source\PSoC4/CapSense_Processing.c **** *  the widget index. When the bit is set the widget is active (touched);
 694:Generated_Source\PSoC4/CapSense_Processing.c **** *
 695:Generated_Source\PSoC4/CapSense_Processing.c **** *  Depending on the type of widget the snsStatus register may contain either
 696:Generated_Source\PSoC4/CapSense_Processing.c **** *  status of each widget node (active/non-active) or in case of the CSX Touchpad
 697:Generated_Source\PSoC4/CapSense_Processing.c **** *  is contains the number of touches. In both cases 0 means that widget is not
 698:Generated_Source\PSoC4/CapSense_Processing.c **** *  active.
 699:Generated_Source\PSoC4/CapSense_Processing.c **** *
 700:Generated_Source\PSoC4/CapSense_Processing.c **** * \param widgetId     The widget ID number.
 701:Generated_Source\PSoC4/CapSense_Processing.c **** * \param ptrFlashWdgt The pointer to the Flash Widget Object.
 702:Generated_Source\PSoC4/CapSense_Processing.c **** *
 703:Generated_Source\PSoC4/CapSense_Processing.c **** *******************************************************************************/
 704:Generated_Source\PSoC4/CapSense_Processing.c **** void CapSense_DpProcessCsxWidgetStatus(uint32 widgetId, CapSense_FLASH_WD_STRUCT const *ptrFlashWdg
 705:Generated_Source\PSoC4/CapSense_Processing.c **** {
 706:Generated_Source\PSoC4/CapSense_Processing.c ****     uint32 sensorStatus;
 707:Generated_Source\PSoC4/CapSense_Processing.c ****     uint32 wdStatusIndex;
 708:Generated_Source\PSoC4/CapSense_Processing.c ****     uint32 wdStatusMask;
 709:Generated_Source\PSoC4/CapSense_Processing.c ****     CapSense_WD_TYPE_ENUM widgetType;
 710:Generated_Source\PSoC4/CapSense_Processing.c **** 
 711:Generated_Source\PSoC4/CapSense_Processing.c ****     widgetType = (CapSense_WD_TYPE_ENUM)ptrFlashWdgt->wdgtType;
 712:Generated_Source\PSoC4/CapSense_Processing.c ****     sensorStatus = CapSense_dsRam.snsStatus[widgetId];
 713:Generated_Source\PSoC4/CapSense_Processing.c **** 
 714:Generated_Source\PSoC4/CapSense_Processing.c ****     switch (widgetType)
 715:Generated_Source\PSoC4/CapSense_Processing.c ****     {
 716:Generated_Source\PSoC4/CapSense_Processing.c ****     #if (0u != CapSense_BUTTON_WIDGET_EN)
 717:Generated_Source\PSoC4/CapSense_Processing.c ****         case CapSense_WD_BUTTON_E:
 718:Generated_Source\PSoC4/CapSense_Processing.c ****             sensorStatus = CapSense_DpProcessButton(sensorStatus, ptrFlashWdgt);
 719:Generated_Source\PSoC4/CapSense_Processing.c ****             break;
 720:Generated_Source\PSoC4/CapSense_Processing.c ****     #endif /* #if (0u != CapSense_BUTTON_WIDGET_EN) */
 721:Generated_Source\PSoC4/CapSense_Processing.c **** 
 722:Generated_Source\PSoC4/CapSense_Processing.c ****     #if (0u != CapSense_CSX_MATRIX_WIDGET_EN)
 723:Generated_Source\PSoC4/CapSense_Processing.c ****         case CapSense_WD_MATRIX_BUTTON_E:
 724:Generated_Source\PSoC4/CapSense_Processing.c ****             sensorStatus = CapSense_DpProcessButton(sensorStatus, ptrFlashWdgt);
 725:Generated_Source\PSoC4/CapSense_Processing.c ****             break;
 726:Generated_Source\PSoC4/CapSense_Processing.c ****     #endif /* #if (0u != CapSense_CSX_MATRIX_WIDGET_EN) */
 727:Generated_Source\PSoC4/CapSense_Processing.c **** 
 728:Generated_Source\PSoC4/CapSense_Processing.c ****     #if (0u != CapSense_CSX_TOUCHPAD_WIDGET_EN)
 729:Generated_Source\PSoC4/CapSense_Processing.c ****         case CapSense_WD_TOUCHPAD_E:
 730:Generated_Source\PSoC4/CapSense_Processing.c ****             sensorStatus = CapSense_DpProcessCsxTouchpad(sensorStatus, ptrFlashWdgt);
ARM GAS  C:\Users\JANUSD~1\AppData\Local\Temp\ccK195Su.s 			page 17


 731:Generated_Source\PSoC4/CapSense_Processing.c ****             break;
 732:Generated_Source\PSoC4/CapSense_Processing.c ****     #endif /* #if (0u != CapSense_CSX_TOUCHPAD_WIDGET_EN) */
 733:Generated_Source\PSoC4/CapSense_Processing.c **** 
 734:Generated_Source\PSoC4/CapSense_Processing.c ****     default:
 735:Generated_Source\PSoC4/CapSense_Processing.c ****         CYASSERT(0u);
 736:Generated_Source\PSoC4/CapSense_Processing.c ****         break;
 737:Generated_Source\PSoC4/CapSense_Processing.c ****     }
 738:Generated_Source\PSoC4/CapSense_Processing.c **** 
 739:Generated_Source\PSoC4/CapSense_Processing.c ****     /* Update sensor status in the data structure */
 740:Generated_Source\PSoC4/CapSense_Processing.c ****     CapSense_dsRam.snsStatus[widgetId] = (CapSense_SNS_STS_TYPE)sensorStatus;
 741:Generated_Source\PSoC4/CapSense_Processing.c **** 
 742:Generated_Source\PSoC4/CapSense_Processing.c ****     /* The next two lines calculate index and bitmask of the widget status bit in the wdgtStatus ar
 743:Generated_Source\PSoC4/CapSense_Processing.c ****     wdStatusIndex = CapSense_GET_WDGT_STATUS_INDEX(widgetId);
 744:Generated_Source\PSoC4/CapSense_Processing.c ****     wdStatusMask = CapSense_GET_WDGT_STATUS_MASK(widgetId);
 745:Generated_Source\PSoC4/CapSense_Processing.c **** 
 746:Generated_Source\PSoC4/CapSense_Processing.c ****     /* Check if there are active sensors and update widget status accordingly */
 747:Generated_Source\PSoC4/CapSense_Processing.c ****     if (0u == sensorStatus)
 748:Generated_Source\PSoC4/CapSense_Processing.c ****     {
 749:Generated_Source\PSoC4/CapSense_Processing.c ****         CapSense_dsRam.wdgtStatus[wdStatusIndex] &= ~wdStatusMask;
 750:Generated_Source\PSoC4/CapSense_Processing.c ****     }
 751:Generated_Source\PSoC4/CapSense_Processing.c ****     else
 752:Generated_Source\PSoC4/CapSense_Processing.c ****     {
 753:Generated_Source\PSoC4/CapSense_Processing.c ****         CapSense_dsRam.wdgtStatus[wdStatusIndex] |= wdStatusMask;
 754:Generated_Source\PSoC4/CapSense_Processing.c ****     }
 755:Generated_Source\PSoC4/CapSense_Processing.c **** }
 756:Generated_Source\PSoC4/CapSense_Processing.c **** #endif /* #if CapSense_TOTAL_CSX_WIDGETS */
 757:Generated_Source\PSoC4/CapSense_Processing.c **** 
 758:Generated_Source\PSoC4/CapSense_Processing.c **** #if (0u != CapSense_TOTAL_ISX_WIDGETS)
 759:Generated_Source\PSoC4/CapSense_Processing.c **** /*******************************************************************************
 760:Generated_Source\PSoC4/CapSense_Processing.c **** * Function Name: CapSense_DpProcessIsxWidgetRawCounts
 761:Generated_Source\PSoC4/CapSense_Processing.c **** ****************************************************************************//**
 762:Generated_Source\PSoC4/CapSense_Processing.c **** *
 763:Generated_Source\PSoC4/CapSense_Processing.c **** * \brief
 764:Generated_Source\PSoC4/CapSense_Processing.c **** *  Performs default processing of the ISX raw counts.
 765:Generated_Source\PSoC4/CapSense_Processing.c **** *
 766:Generated_Source\PSoC4/CapSense_Processing.c **** * \details
 767:Generated_Source\PSoC4/CapSense_Processing.c **** *  Performs default processing of the ISX raw counts:
 768:Generated_Source\PSoC4/CapSense_Processing.c **** *   - Run Filters
 769:Generated_Source\PSoC4/CapSense_Processing.c **** *   - Update Baselines
 770:Generated_Source\PSoC4/CapSense_Processing.c **** *   - Update Differences
 771:Generated_Source\PSoC4/CapSense_Processing.c **** *   - Update Status.
 772:Generated_Source\PSoC4/CapSense_Processing.c **** *  The same process is applied to all the sensors of the specified widget.
 773:Generated_Source\PSoC4/CapSense_Processing.c **** *
 774:Generated_Source\PSoC4/CapSense_Processing.c **** * \param ptrFlashWdgt The pointer to the Flash widget structure.
 775:Generated_Source\PSoC4/CapSense_Processing.c **** *
 776:Generated_Source\PSoC4/CapSense_Processing.c **** * \return
 777:Generated_Source\PSoC4/CapSense_Processing.c **** *  Returns the status of the specified widget processing operation:
 778:Generated_Source\PSoC4/CapSense_Processing.c **** *  - CYRET_SUCCESS if operation was successfully completed;
 779:Generated_Source\PSoC4/CapSense_Processing.c **** *  - CapSense_PROCESS_BASELINE_FAILED if baseline processing of any
 780:Generated_Source\PSoC4/CapSense_Processing.c **** *    sensor of the specified widget failed. The result is concatenated with the index
 781:Generated_Source\PSoC4/CapSense_Processing.c **** *    of failed sensor.
 782:Generated_Source\PSoC4/CapSense_Processing.c **** *
 783:Generated_Source\PSoC4/CapSense_Processing.c **** *******************************************************************************/
 784:Generated_Source\PSoC4/CapSense_Processing.c **** uint32 CapSense_DpProcessIsxWidgetRawCounts(CapSense_FLASH_WD_STRUCT const *ptrFlashWdgt)
 785:Generated_Source\PSoC4/CapSense_Processing.c **** {
 786:Generated_Source\PSoC4/CapSense_Processing.c ****     uint32 result = CYRET_SUCCESS;
 787:Generated_Source\PSoC4/CapSense_Processing.c ****     uint32 widgetType;
ARM GAS  C:\Users\JANUSD~1\AppData\Local\Temp\ccK195Su.s 			page 18


 788:Generated_Source\PSoC4/CapSense_Processing.c ****     CapSense_RAM_SNS_STRUCT *ptrSns;
 789:Generated_Source\PSoC4/CapSense_Processing.c ****     CapSense_RAM_WD_BASE_STRUCT *ptrRamWdgt;
 790:Generated_Source\PSoC4/CapSense_Processing.c **** 
 791:Generated_Source\PSoC4/CapSense_Processing.c ****     #if (CapSense_ENABLE == CapSense_RC_FILTER_EN)
 792:Generated_Source\PSoC4/CapSense_Processing.c ****         CapSense_PTR_FILTER_VARIANT fltrHistV;
 793:Generated_Source\PSoC4/CapSense_Processing.c **** 
 794:Generated_Source\PSoC4/CapSense_Processing.c ****         fltrHistV.ptr = ptrFlashWdgt->ptr2FltrHistory;
 795:Generated_Source\PSoC4/CapSense_Processing.c ****     #endif /* #if (CapSense_ENABLE == CapSense_RC_FILTER_EN) */
 796:Generated_Source\PSoC4/CapSense_Processing.c **** 
 797:Generated_Source\PSoC4/CapSense_Processing.c ****     ptrSns = ptrFlashWdgt->ptr2SnsRam;
 798:Generated_Source\PSoC4/CapSense_Processing.c ****     ptrRamWdgt = ptrFlashWdgt->ptr2WdgtRam;
 799:Generated_Source\PSoC4/CapSense_Processing.c ****     widgetType = ptrFlashWdgt->wdgtType;
 800:Generated_Source\PSoC4/CapSense_Processing.c **** 
 801:Generated_Source\PSoC4/CapSense_Processing.c ****     #if (0u != CapSense_ISX_SKIP_OVSMPL_SPECIFIC_NODES)
 802:Generated_Source\PSoC4/CapSense_Processing.c ****         if (0u != ptrSns->resolution)
 803:Generated_Source\PSoC4/CapSense_Processing.c ****     #endif
 804:Generated_Source\PSoC4/CapSense_Processing.c ****     {
 805:Generated_Source\PSoC4/CapSense_Processing.c ****         #if (CapSense_ENABLE == CapSense_RC_FILTER_EN)
 806:Generated_Source\PSoC4/CapSense_Processing.c ****             CapSense_FtRunEnabledFiltersInternal(fltrHistV, ptrSns, widgetType);
 807:Generated_Source\PSoC4/CapSense_Processing.c ****         #endif /* #if (CapSense_ENABLE == CapSense_RC_FILTER_EN) */
 808:Generated_Source\PSoC4/CapSense_Processing.c **** 
 809:Generated_Source\PSoC4/CapSense_Processing.c ****         result = CapSense_FtUpdateBaseline(ptrRamWdgt, ptrSns, widgetType);
 810:Generated_Source\PSoC4/CapSense_Processing.c **** 
 811:Generated_Source\PSoC4/CapSense_Processing.c ****         #if (CapSense_ENABLE == CapSense_TST_BSLN_DUPLICATION_EN)
 812:Generated_Source\PSoC4/CapSense_Processing.c ****             if (CYRET_SUCCESS != result)
 813:Generated_Source\PSoC4/CapSense_Processing.c ****             {
 814:Generated_Source\PSoC4/CapSense_Processing.c ****                 result = CapSense_PROCESS_BASELINE_FAILED;
 815:Generated_Source\PSoC4/CapSense_Processing.c ****             }
 816:Generated_Source\PSoC4/CapSense_Processing.c ****         #endif /* (CapSense_ENABLE == CapSense_TST_BSLN_DUPLICATION_EN) */
 817:Generated_Source\PSoC4/CapSense_Processing.c **** 
 818:Generated_Source\PSoC4/CapSense_Processing.c ****         CapSense_DpUpdateDifferences(ptrRamWdgt, ptrSns);
 819:Generated_Source\PSoC4/CapSense_Processing.c ****     }
 820:Generated_Source\PSoC4/CapSense_Processing.c **** 
 821:Generated_Source\PSoC4/CapSense_Processing.c ****     #if (CapSense_ENABLE == CapSense_RC_FILTER_EN)
 822:Generated_Source\PSoC4/CapSense_Processing.c ****         CapSense_INC_FLTR_OBJ_VARIANT(0u, fltrHistV);
 823:Generated_Source\PSoC4/CapSense_Processing.c ****     #endif /* #if (CapSense_ENABLE == CapSense_RC_FILTER_EN) */
 824:Generated_Source\PSoC4/CapSense_Processing.c **** 
 825:Generated_Source\PSoC4/CapSense_Processing.c ****     return result;
 826:Generated_Source\PSoC4/CapSense_Processing.c **** }
 827:Generated_Source\PSoC4/CapSense_Processing.c **** 
 828:Generated_Source\PSoC4/CapSense_Processing.c **** /*******************************************************************************
 829:Generated_Source\PSoC4/CapSense_Processing.c **** * Function Name: CapSense_DpProcessIsxSensorRawCountsExt
 830:Generated_Source\PSoC4/CapSense_Processing.c **** ****************************************************************************//**
 831:Generated_Source\PSoC4/CapSense_Processing.c **** *
 832:Generated_Source\PSoC4/CapSense_Processing.c **** * \brief
 833:Generated_Source\PSoC4/CapSense_Processing.c **** *   Performs customized processing of the ISX sensor raw counts.
 834:Generated_Source\PSoC4/CapSense_Processing.c **** *
 835:Generated_Source\PSoC4/CapSense_Processing.c **** * \details
 836:Generated_Source\PSoC4/CapSense_Processing.c **** *   Performs customized processing of the ISX sensor raw counts.
 837:Generated_Source\PSoC4/CapSense_Processing.c **** *
 838:Generated_Source\PSoC4/CapSense_Processing.c **** *   If all bits are set at once the default processing order will take place.
 839:Generated_Source\PSoC4/CapSense_Processing.c **** *   For the custom order this API can be called multiple times and execute one task at a time.
 840:Generated_Source\PSoC4/CapSense_Processing.c **** *
 841:Generated_Source\PSoC4/CapSense_Processing.c **** * \param ptrFlashWdgt The pointer to the Flash Widget Object.
 842:Generated_Source\PSoC4/CapSense_Processing.c **** * \param ptrSns       The pointer to the specific RAM Sensor Object.
 843:Generated_Source\PSoC4/CapSense_Processing.c **** * \param fltrHistV    The pointer to the Filter History Object in RAM associated with specific sens
 844:Generated_Source\PSoC4/CapSense_Processing.c **** * \param mode         The bit-mask with the data processing tasks to be executed.
ARM GAS  C:\Users\JANUSD~1\AppData\Local\Temp\ccK195Su.s 			page 19


 845:Generated_Source\PSoC4/CapSense_Processing.c **** *   The mode parameters can take the following values:
 846:Generated_Source\PSoC4/CapSense_Processing.c **** *    - CapSense_PROCESS_FILTER     (0x01) Run Firmware Filter
 847:Generated_Source\PSoC4/CapSense_Processing.c **** *    - CapSense_PROCESS_BASELINE   (0x02) Update Baselines
 848:Generated_Source\PSoC4/CapSense_Processing.c **** *    - CapSense_PROCESS_DIFFCOUNTS (0x04) Update Difference Counts
 849:Generated_Source\PSoC4/CapSense_Processing.c **** *    - CapSense_PROCESS_ALL               Execute all tasks
 850:Generated_Source\PSoC4/CapSense_Processing.c **** *
 851:Generated_Source\PSoC4/CapSense_Processing.c **** * \return
 852:Generated_Source\PSoC4/CapSense_Processing.c **** *  Returns the status of the specified sensor processing operation:
 853:Generated_Source\PSoC4/CapSense_Processing.c **** *  - CYRET_SUCCESS if operation was successfully completed;
 854:Generated_Source\PSoC4/CapSense_Processing.c **** *  - CapSense_PROCESS_BASELINE_FAILED if baseline processing of any
 855:Generated_Source\PSoC4/CapSense_Processing.c **** *    sensor of the specified widget failed. The result is concatenated with the index
 856:Generated_Source\PSoC4/CapSense_Processing.c **** *    of failed sensor.
 857:Generated_Source\PSoC4/CapSense_Processing.c **** *
 858:Generated_Source\PSoC4/CapSense_Processing.c **** *******************************************************************************/
 859:Generated_Source\PSoC4/CapSense_Processing.c **** uint32 CapSense_DpProcessIsxSensorRawCountsExt(
 860:Generated_Source\PSoC4/CapSense_Processing.c ****                 CapSense_FLASH_WD_STRUCT const *ptrFlashWdgt,
 861:Generated_Source\PSoC4/CapSense_Processing.c ****                 CapSense_RAM_SNS_STRUCT *ptrSns,
 862:Generated_Source\PSoC4/CapSense_Processing.c ****                 CapSense_PTR_FILTER_VARIANT fltrHistV,
 863:Generated_Source\PSoC4/CapSense_Processing.c ****                 uint32 mode)
 864:Generated_Source\PSoC4/CapSense_Processing.c **** {
 865:Generated_Source\PSoC4/CapSense_Processing.c ****     uint32  result = CYRET_SUCCESS;
 866:Generated_Source\PSoC4/CapSense_Processing.c ****     uint32  widgetType;
 867:Generated_Source\PSoC4/CapSense_Processing.c ****     CapSense_RAM_WD_BASE_STRUCT *ptrRamWdgt;
 868:Generated_Source\PSoC4/CapSense_Processing.c **** 
 869:Generated_Source\PSoC4/CapSense_Processing.c ****     widgetType = ptrFlashWdgt->wdgtType;
 870:Generated_Source\PSoC4/CapSense_Processing.c ****     ptrRamWdgt = ptrFlashWdgt->ptr2WdgtRam;
 871:Generated_Source\PSoC4/CapSense_Processing.c **** 
 872:Generated_Source\PSoC4/CapSense_Processing.c ****     #if (CapSense_ENABLE == CapSense_RC_FILTER_EN)
 873:Generated_Source\PSoC4/CapSense_Processing.c ****         if (0u != (mode & CapSense_PROCESS_FILTER))
 874:Generated_Source\PSoC4/CapSense_Processing.c ****         {
 875:Generated_Source\PSoC4/CapSense_Processing.c ****             CapSense_FtRunEnabledFiltersInternal(fltrHistV, ptrSns, widgetType);
 876:Generated_Source\PSoC4/CapSense_Processing.c ****         }
 877:Generated_Source\PSoC4/CapSense_Processing.c ****     #else
 878:Generated_Source\PSoC4/CapSense_Processing.c ****         (void)fltrHistV; /* This parameter is unused in such configurations */
 879:Generated_Source\PSoC4/CapSense_Processing.c ****     #endif /* #if (CapSense_ENABLE == CapSense_RC_FILTER_EN) */
 880:Generated_Source\PSoC4/CapSense_Processing.c **** 
 881:Generated_Source\PSoC4/CapSense_Processing.c ****     if (0u != (mode & CapSense_PROCESS_BASELINE))
 882:Generated_Source\PSoC4/CapSense_Processing.c ****     {
 883:Generated_Source\PSoC4/CapSense_Processing.c ****         result = CapSense_FtUpdateBaseline(ptrRamWdgt, ptrSns, widgetType);
 884:Generated_Source\PSoC4/CapSense_Processing.c ****     }
 885:Generated_Source\PSoC4/CapSense_Processing.c **** 
 886:Generated_Source\PSoC4/CapSense_Processing.c ****     if (0u != (mode & CapSense_PROCESS_DIFFCOUNTS))
 887:Generated_Source\PSoC4/CapSense_Processing.c ****     {
 888:Generated_Source\PSoC4/CapSense_Processing.c ****         CapSense_DpUpdateDifferences(ptrRamWdgt, ptrSns);
 889:Generated_Source\PSoC4/CapSense_Processing.c ****     }
 890:Generated_Source\PSoC4/CapSense_Processing.c ****     return result;
 891:Generated_Source\PSoC4/CapSense_Processing.c **** }
 892:Generated_Source\PSoC4/CapSense_Processing.c **** 
 893:Generated_Source\PSoC4/CapSense_Processing.c **** 
 894:Generated_Source\PSoC4/CapSense_Processing.c **** /*******************************************************************************
 895:Generated_Source\PSoC4/CapSense_Processing.c **** * Function Name: CapSense_DpProcessIsxWidgetStatus
 896:Generated_Source\PSoC4/CapSense_Processing.c **** ****************************************************************************//**
 897:Generated_Source\PSoC4/CapSense_Processing.c **** *
 898:Generated_Source\PSoC4/CapSense_Processing.c **** * \brief
 899:Generated_Source\PSoC4/CapSense_Processing.c **** *   Updates the status of the ISX widget in the Data Structure.
 900:Generated_Source\PSoC4/CapSense_Processing.c **** *
 901:Generated_Source\PSoC4/CapSense_Processing.c **** * \details
ARM GAS  C:\Users\JANUSD~1\AppData\Local\Temp\ccK195Su.s 			page 20


 902:Generated_Source\PSoC4/CapSense_Processing.c **** *  This API determines the type of widget and runs the appropriate function
 903:Generated_Source\PSoC4/CapSense_Processing.c **** *  that implements the status update algorithm for this type of widget.
 904:Generated_Source\PSoC4/CapSense_Processing.c **** *
 905:Generated_Source\PSoC4/CapSense_Processing.c **** *  When the widget-specific processing completes this API updates the snsStatus
 906:Generated_Source\PSoC4/CapSense_Processing.c **** *  and wdgtStatus registers in the data structure. The wdgtStatus register
 907:Generated_Source\PSoC4/CapSense_Processing.c **** *  is a bitmask were each bit corresponds to the specific widget identified by
 908:Generated_Source\PSoC4/CapSense_Processing.c **** *  the widget index. When the bit is set the widget is active (touched);
 909:Generated_Source\PSoC4/CapSense_Processing.c **** *
 910:Generated_Source\PSoC4/CapSense_Processing.c **** *  Depending on the type of widget the snsStatus register may contain either
 911:Generated_Source\PSoC4/CapSense_Processing.c **** *  status of each widget node (active/non-active) or in case of the ISX Touchpad
 912:Generated_Source\PSoC4/CapSense_Processing.c **** *  is contains the number of touches. In both cases 0 means that widget is not
 913:Generated_Source\PSoC4/CapSense_Processing.c **** *  active.
 914:Generated_Source\PSoC4/CapSense_Processing.c **** *
 915:Generated_Source\PSoC4/CapSense_Processing.c **** * \param wdgtId       The widget index number.
 916:Generated_Source\PSoC4/CapSense_Processing.c **** * \param ptrFlashWdgt The pointer to the Flash Widget Object.
 917:Generated_Source\PSoC4/CapSense_Processing.c **** *
 918:Generated_Source\PSoC4/CapSense_Processing.c **** *******************************************************************************/
 919:Generated_Source\PSoC4/CapSense_Processing.c **** void CapSense_DpProcessIsxWidgetStatus(uint32 wdgtId, CapSense_FLASH_WD_STRUCT const *ptrFlashWdgt)
 920:Generated_Source\PSoC4/CapSense_Processing.c **** {
 921:Generated_Source\PSoC4/CapSense_Processing.c ****     uint32 sensorStatus;
 922:Generated_Source\PSoC4/CapSense_Processing.c ****     uint32 wdStatusIndex;
 923:Generated_Source\PSoC4/CapSense_Processing.c ****     uint32 wdStatusMask;
 924:Generated_Source\PSoC4/CapSense_Processing.c ****     CapSense_WD_TYPE_ENUM widgetType;
 925:Generated_Source\PSoC4/CapSense_Processing.c **** 
 926:Generated_Source\PSoC4/CapSense_Processing.c ****     widgetType = (CapSense_WD_TYPE_ENUM)ptrFlashWdgt->wdgtType;
 927:Generated_Source\PSoC4/CapSense_Processing.c ****     sensorStatus = CapSense_dsRam.snsStatus[wdgtId];
 928:Generated_Source\PSoC4/CapSense_Processing.c **** 
 929:Generated_Source\PSoC4/CapSense_Processing.c ****     switch (widgetType)
 930:Generated_Source\PSoC4/CapSense_Processing.c ****     {
 931:Generated_Source\PSoC4/CapSense_Processing.c ****     #if (0u != CapSense_PROXIMITY_WIDGET_EN)
 932:Generated_Source\PSoC4/CapSense_Processing.c ****         case CapSense_WD_PROXIMITY_E:
 933:Generated_Source\PSoC4/CapSense_Processing.c ****             sensorStatus = CapSense_DpProcessProximity(sensorStatus, ptrFlashWdgt);
 934:Generated_Source\PSoC4/CapSense_Processing.c ****             break;
 935:Generated_Source\PSoC4/CapSense_Processing.c ****     #endif /* #if (0u != CapSense_Proximity_WIDGET_EN) */
 936:Generated_Source\PSoC4/CapSense_Processing.c **** 
 937:Generated_Source\PSoC4/CapSense_Processing.c ****     default:
 938:Generated_Source\PSoC4/CapSense_Processing.c ****         CYASSERT(0u);
 939:Generated_Source\PSoC4/CapSense_Processing.c ****         break;
 940:Generated_Source\PSoC4/CapSense_Processing.c ****     }
 941:Generated_Source\PSoC4/CapSense_Processing.c **** 
 942:Generated_Source\PSoC4/CapSense_Processing.c ****     /* Update sensor status in the data structure */
 943:Generated_Source\PSoC4/CapSense_Processing.c ****     CapSense_dsRam.snsStatus[wdgtId] = (CapSense_SNS_STS_TYPE)sensorStatus;
 944:Generated_Source\PSoC4/CapSense_Processing.c **** 
 945:Generated_Source\PSoC4/CapSense_Processing.c ****     /* The next two lines calculate index and bitmask of the widget status bit in the wdgtStatus ar
 946:Generated_Source\PSoC4/CapSense_Processing.c ****     wdStatusIndex = CapSense_GET_WDGT_STATUS_INDEX(wdgtId);
 947:Generated_Source\PSoC4/CapSense_Processing.c ****     wdStatusMask = CapSense_GET_WDGT_STATUS_MASK(wdgtId);
 948:Generated_Source\PSoC4/CapSense_Processing.c **** 
 949:Generated_Source\PSoC4/CapSense_Processing.c ****     /* Check if there are active sensors and update widget status accordingly */
 950:Generated_Source\PSoC4/CapSense_Processing.c ****     if (0u == sensorStatus)
 951:Generated_Source\PSoC4/CapSense_Processing.c ****     {
 952:Generated_Source\PSoC4/CapSense_Processing.c ****         CapSense_dsRam.wdgtStatus[wdStatusIndex] &= ~wdStatusMask;
 953:Generated_Source\PSoC4/CapSense_Processing.c ****     }
 954:Generated_Source\PSoC4/CapSense_Processing.c ****     else
 955:Generated_Source\PSoC4/CapSense_Processing.c ****     {
 956:Generated_Source\PSoC4/CapSense_Processing.c ****         CapSense_dsRam.wdgtStatus[wdStatusIndex] |= wdStatusMask;
 957:Generated_Source\PSoC4/CapSense_Processing.c ****     }
 958:Generated_Source\PSoC4/CapSense_Processing.c **** }
ARM GAS  C:\Users\JANUSD~1\AppData\Local\Temp\ccK195Su.s 			page 21


 959:Generated_Source\PSoC4/CapSense_Processing.c **** #endif /* #if CapSense_TOTAL_ISX_WIDGETS */
 960:Generated_Source\PSoC4/CapSense_Processing.c **** 
 961:Generated_Source\PSoC4/CapSense_Processing.c **** #if (0u != CapSense_TOTAL_CSD_WIDGETS)
 962:Generated_Source\PSoC4/CapSense_Processing.c **** /*******************************************************************************
 963:Generated_Source\PSoC4/CapSense_Processing.c **** * Function Name: CapSense_DpProcessCsdWidgetRawCounts
 964:Generated_Source\PSoC4/CapSense_Processing.c **** ****************************************************************************//**
 965:Generated_Source\PSoC4/CapSense_Processing.c **** *
 966:Generated_Source\PSoC4/CapSense_Processing.c **** * \brief
 967:Generated_Source\PSoC4/CapSense_Processing.c **** *   Performs default processing for the CSD widget raw counts.
 968:Generated_Source\PSoC4/CapSense_Processing.c **** *
 969:Generated_Source\PSoC4/CapSense_Processing.c **** * \details
 970:Generated_Source\PSoC4/CapSense_Processing.c **** *   Performs default processing for the CSD widget raw counts:
 971:Generated_Source\PSoC4/CapSense_Processing.c **** *    - Run Filters
 972:Generated_Source\PSoC4/CapSense_Processing.c **** *    - Update Thresholds (FW Auto-tuning)
 973:Generated_Source\PSoC4/CapSense_Processing.c **** *    - Update Baselines
 974:Generated_Source\PSoC4/CapSense_Processing.c **** *    - Update Differences.
 975:Generated_Source\PSoC4/CapSense_Processing.c **** *   The process is applied to all widget's sensors.
 976:Generated_Source\PSoC4/CapSense_Processing.c **** *
 977:Generated_Source\PSoC4/CapSense_Processing.c **** * \param ptrFlashWdgt The pointer to the Flash Widget Object.
 978:Generated_Source\PSoC4/CapSense_Processing.c **** *
 979:Generated_Source\PSoC4/CapSense_Processing.c **** * \return
 980:Generated_Source\PSoC4/CapSense_Processing.c **** *  Returns the status of the specified widget processing operation:
 981:Generated_Source\PSoC4/CapSense_Processing.c **** *  - CYRET_SUCCESS if operation was successfully completed;
 982:Generated_Source\PSoC4/CapSense_Processing.c **** *  - CapSense_PROCESS_BASELINE_FAILED if baseline processing of any
 983:Generated_Source\PSoC4/CapSense_Processing.c **** *    sensor of the specified widget failed. The result is concatenated with the index
 984:Generated_Source\PSoC4/CapSense_Processing.c **** *    of failed sensor.
 985:Generated_Source\PSoC4/CapSense_Processing.c **** *
 986:Generated_Source\PSoC4/CapSense_Processing.c **** *******************************************************************************/
 987:Generated_Source\PSoC4/CapSense_Processing.c **** uint32 CapSense_DpProcessCsdWidgetRawCounts(CapSense_FLASH_WD_STRUCT const *ptrFlashWdgt)
 988:Generated_Source\PSoC4/CapSense_Processing.c **** {
 989:Generated_Source\PSoC4/CapSense_Processing.c ****     uint32  result = CYRET_SUCCESS;
 990:Generated_Source\PSoC4/CapSense_Processing.c **** 
 991:Generated_Source\PSoC4/CapSense_Processing.c ****     #if (CapSense_ENABLE == CapSense_TST_BSLN_DUPLICATION_EN)
 992:Generated_Source\PSoC4/CapSense_Processing.c ****         uint32 bslnTstResult = CYRET_SUCCESS;
 993:Generated_Source\PSoC4/CapSense_Processing.c ****     #endif /* (CapSense_ENABLE == CapSense_TST_BSLN_DUPLICATION_EN) */
 994:Generated_Source\PSoC4/CapSense_Processing.c **** 
 995:Generated_Source\PSoC4/CapSense_Processing.c ****     uint32  widgetType;
 996:Generated_Source\PSoC4/CapSense_Processing.c ****     uint32  snsId;
 997:Generated_Source\PSoC4/CapSense_Processing.c ****     CapSense_RAM_SNS_STRUCT *ptrSnsTmp;
 998:Generated_Source\PSoC4/CapSense_Processing.c ****     CapSense_RAM_WD_BASE_STRUCT *ptrRamWdgt;
 999:Generated_Source\PSoC4/CapSense_Processing.c **** 
1000:Generated_Source\PSoC4/CapSense_Processing.c ****     #if (0u != (CapSense_CSD_AUTOTUNE & CapSense_CSD_SS_TH_EN))
1001:Generated_Source\PSoC4/CapSense_Processing.c ****         /* The noise envelope data is available only when Full CSD Auto-Tuning is enabled */
1002:Generated_Source\PSoC4/CapSense_Processing.c ****         SMARTSENSE_CSD_NOISE_ENVELOPE_STRUCT *ptrNoiseEnvelope;
1003:Generated_Source\PSoC4/CapSense_Processing.c ****         #if (CapSense_ENABLE == CapSense_PROXIMITY_WIDGET_EN)
1004:Generated_Source\PSoC4/CapSense_Processing.c ****             uint32  proximityThreshold;
1005:Generated_Source\PSoC4/CapSense_Processing.c ****         #endif /* (0 != CapSense_PROXIMITY_WIDGET_EN) */
1006:Generated_Source\PSoC4/CapSense_Processing.c ****     #endif /* #if (0u != (CapSense_CSD_AUTOTUNE & CapSense_CSD_SS_TH_EN)) */
1007:Generated_Source\PSoC4/CapSense_Processing.c **** 
1008:Generated_Source\PSoC4/CapSense_Processing.c ****     #if (CapSense_ENABLE == CapSense_RC_FILTER_EN)
1009:Generated_Source\PSoC4/CapSense_Processing.c ****         CapSense_PTR_FILTER_VARIANT fltrHistV;
1010:Generated_Source\PSoC4/CapSense_Processing.c **** 
1011:Generated_Source\PSoC4/CapSense_Processing.c ****         /* Determine if widget type is proximity */
1012:Generated_Source\PSoC4/CapSense_Processing.c ****         uint32 isProxWdgt = (CapSense_GET_WIDGET_TYPE(ptrFlashWdgt) == CapSense_WD_PROXIMITY_E) ? 1
1013:Generated_Source\PSoC4/CapSense_Processing.c **** 
1014:Generated_Source\PSoC4/CapSense_Processing.c ****         /* Get pointer to the filter history object */
1015:Generated_Source\PSoC4/CapSense_Processing.c ****         fltrHistV.ptr = ptrFlashWdgt->ptr2FltrHistory;
ARM GAS  C:\Users\JANUSD~1\AppData\Local\Temp\ccK195Su.s 			page 22


1016:Generated_Source\PSoC4/CapSense_Processing.c ****     #endif /* #if (CapSense_ENABLE == CapSense_RC_FILTER_EN) */
1017:Generated_Source\PSoC4/CapSense_Processing.c **** 
1018:Generated_Source\PSoC4/CapSense_Processing.c ****     ptrSnsTmp = ptrFlashWdgt->ptr2SnsRam;
1019:Generated_Source\PSoC4/CapSense_Processing.c ****     ptrRamWdgt = (CapSense_RAM_WD_BASE_STRUCT *)ptrFlashWdgt->ptr2WdgtRam;
1020:Generated_Source\PSoC4/CapSense_Processing.c ****     widgetType = ptrFlashWdgt->wdgtType;
1021:Generated_Source\PSoC4/CapSense_Processing.c **** 
1022:Generated_Source\PSoC4/CapSense_Processing.c ****     #if (0u != (CapSense_CSD_AUTOTUNE & CapSense_CSD_SS_TH_EN))
1023:Generated_Source\PSoC4/CapSense_Processing.c ****         ptrNoiseEnvelope = ptrFlashWdgt->ptr2NoiseEnvlp;
1024:Generated_Source\PSoC4/CapSense_Processing.c ****     #endif /* #if (0u != (CapSense_CSD_AUTOTUNE & CapSense_CSD_SS_TH_EN)) */
1025:Generated_Source\PSoC4/CapSense_Processing.c **** 
1026:Generated_Source\PSoC4/CapSense_Processing.c ****     /* Iterate through all widget's sensors */
1027:Generated_Source\PSoC4/CapSense_Processing.c ****     for(snsId = 0u; snsId < ptrFlashWdgt->totalNumSns; snsId++)
1028:Generated_Source\PSoC4/CapSense_Processing.c ****     {
1029:Generated_Source\PSoC4/CapSense_Processing.c ****         /* Run all enabled filter on specified widget's sensor */
1030:Generated_Source\PSoC4/CapSense_Processing.c ****         #if (CapSense_ENABLE == CapSense_RC_FILTER_EN)
1031:Generated_Source\PSoC4/CapSense_Processing.c ****             CapSense_FtRunEnabledFiltersInternal(fltrHistV, ptrSnsTmp, widgetType);
1032:Generated_Source\PSoC4/CapSense_Processing.c ****             #if (CapSense_ALP_FILTER_EN)
1033:Generated_Source\PSoC4/CapSense_Processing.c ****                 CapSense_ConfigRunALPInternal(fltrHistV, ptrRamWdgt, ptrSnsTmp, widgetType);
1034:Generated_Source\PSoC4/CapSense_Processing.c ****             #endif
1035:Generated_Source\PSoC4/CapSense_Processing.c ****         #endif /* #if (CapSense_ENABLE == CapSense_RC_FILTER_EN) */
1036:Generated_Source\PSoC4/CapSense_Processing.c **** 
1037:Generated_Source\PSoC4/CapSense_Processing.c ****         /* Run auto-tuning activities */
1038:Generated_Source\PSoC4/CapSense_Processing.c ****         #if (0u != (CapSense_CSD_AUTOTUNE & CapSense_CSD_SS_TH_EN))
1039:Generated_Source\PSoC4/CapSense_Processing.c ****             SmartSense_RunNoiseEnvelope(ptrSnsTmp->raw[0u], ptrRamWdgt->sigPFC, ptrNoiseEnvelope);
1040:Generated_Source\PSoC4/CapSense_Processing.c ****             CapSense_DpUpdateThresholds(ptrRamWdgt, ptrNoiseEnvelope, snsId);
1041:Generated_Source\PSoC4/CapSense_Processing.c **** 
1042:Generated_Source\PSoC4/CapSense_Processing.c ****             /* Calculate Proximity Touch Threshold in SmartSense mode based on Finger Threshold and
1043:Generated_Source\PSoC4/CapSense_Processing.c ****             #if (CapSense_ENABLE == CapSense_PROXIMITY_WIDGET_EN)
1044:Generated_Source\PSoC4/CapSense_Processing.c ****                 if (CapSense_WD_PROXIMITY_E == CapSense_GET_WIDGET_TYPE(ptrFlashWdgt))
1045:Generated_Source\PSoC4/CapSense_Processing.c ****                 {
1046:Generated_Source\PSoC4/CapSense_Processing.c ****                     proximityThreshold = ((uint32)ptrRamWdgt->fingerTh * CapSense_PROX_TOUCH_COEFF)
1047:Generated_Source\PSoC4/CapSense_Processing.c ****                     if ((((1Lu) << CapSense_THRESHOLD_SIZE) - 1u) < proximityThreshold)
1048:Generated_Source\PSoC4/CapSense_Processing.c ****                     {
1049:Generated_Source\PSoC4/CapSense_Processing.c ****                         proximityThreshold = ((1Lu) << CapSense_THRESHOLD_SIZE) - 1u;
1050:Generated_Source\PSoC4/CapSense_Processing.c ****                     }
1051:Generated_Source\PSoC4/CapSense_Processing.c ****                     ((CapSense_RAM_WD_PROXIMITY_STRUCT *)ptrFlashWdgt->ptr2WdgtRam)->proxTouchTh =
1052:Generated_Source\PSoC4/CapSense_Processing.c ****                         (CapSense_THRESHOLD_TYPE)proximityThreshold;
1053:Generated_Source\PSoC4/CapSense_Processing.c ****                 }
1054:Generated_Source\PSoC4/CapSense_Processing.c ****             #endif /* (0 != CapSense_PROXIMITY_WIDGET_EN) */
1055:Generated_Source\PSoC4/CapSense_Processing.c **** 
1056:Generated_Source\PSoC4/CapSense_Processing.c ****             /* Move to next noise-envelope object */
1057:Generated_Source\PSoC4/CapSense_Processing.c ****             ptrNoiseEnvelope++;
1058:Generated_Source\PSoC4/CapSense_Processing.c ****         #endif /* (0u != (CapSense_CSD_AUTOTUNE & CapSense_CSD_SS_TH_EN)) */
1059:Generated_Source\PSoC4/CapSense_Processing.c **** 
1060:Generated_Source\PSoC4/CapSense_Processing.c ****         #if (CapSense_ENABLE == CapSense_TST_BSLN_DUPLICATION_EN)
1061:Generated_Source\PSoC4/CapSense_Processing.c ****             bslnTstResult = CapSense_FtUpdateBaseline(ptrRamWdgt, ptrSnsTmp, widgetType);
1062:Generated_Source\PSoC4/CapSense_Processing.c ****             if ((CYRET_SUCCESS != bslnTstResult) && (CYRET_SUCCESS == result))
1063:Generated_Source\PSoC4/CapSense_Processing.c ****             {
1064:Generated_Source\PSoC4/CapSense_Processing.c ****                 result = snsId | CapSense_PROCESS_BASELINE_FAILED;
1065:Generated_Source\PSoC4/CapSense_Processing.c ****             }
1066:Generated_Source\PSoC4/CapSense_Processing.c ****         #else /* (CapSense_ENABLE == CapSense_TST_BSLN_DUPLICATION_EN) */
1067:Generated_Source\PSoC4/CapSense_Processing.c ****             result = CapSense_FtUpdateBaseline(ptrRamWdgt, ptrSnsTmp, widgetType);
1068:Generated_Source\PSoC4/CapSense_Processing.c ****         #endif /* (CapSense_ENABLE == CapSense_TST_BSLN_DUPLICATION_EN) */
1069:Generated_Source\PSoC4/CapSense_Processing.c **** 
1070:Generated_Source\PSoC4/CapSense_Processing.c ****         CapSense_DpUpdateDifferences(ptrRamWdgt, ptrSnsTmp);
1071:Generated_Source\PSoC4/CapSense_Processing.c **** 
1072:Generated_Source\PSoC4/CapSense_Processing.c ****         /* Move to next sensor object */
ARM GAS  C:\Users\JANUSD~1\AppData\Local\Temp\ccK195Su.s 			page 23


1073:Generated_Source\PSoC4/CapSense_Processing.c ****         ptrSnsTmp++;
1074:Generated_Source\PSoC4/CapSense_Processing.c **** 
1075:Generated_Source\PSoC4/CapSense_Processing.c ****         #if (CapSense_ENABLE == CapSense_RC_FILTER_EN)
1076:Generated_Source\PSoC4/CapSense_Processing.c ****             /* Move to the next filter history object */
1077:Generated_Source\PSoC4/CapSense_Processing.c ****             CapSense_INC_FLTR_OBJ_VARIANT(isProxWdgt, fltrHistV);
1078:Generated_Source\PSoC4/CapSense_Processing.c ****         #endif /* #if (CapSense_ENABLE == CapSense_RC_FILTER_EN) */
1079:Generated_Source\PSoC4/CapSense_Processing.c ****     }
1080:Generated_Source\PSoC4/CapSense_Processing.c ****     return result;
1081:Generated_Source\PSoC4/CapSense_Processing.c **** }
1082:Generated_Source\PSoC4/CapSense_Processing.c **** 
1083:Generated_Source\PSoC4/CapSense_Processing.c **** 
1084:Generated_Source\PSoC4/CapSense_Processing.c **** /*******************************************************************************
1085:Generated_Source\PSoC4/CapSense_Processing.c **** * Function Name: CapSense_DpProcessCsdSensorRawCountsExt
1086:Generated_Source\PSoC4/CapSense_Processing.c **** ****************************************************************************//**
1087:Generated_Source\PSoC4/CapSense_Processing.c **** *
1088:Generated_Source\PSoC4/CapSense_Processing.c **** * \brief
1089:Generated_Source\PSoC4/CapSense_Processing.c **** *   Performs customized processing of the CSD sensor raw counts.
1090:Generated_Source\PSoC4/CapSense_Processing.c **** *
1091:Generated_Source\PSoC4/CapSense_Processing.c **** * \details
1092:Generated_Source\PSoC4/CapSense_Processing.c **** *   Performs customized processing of the CSD sensor raw counts.
1093:Generated_Source\PSoC4/CapSense_Processing.c **** *
1094:Generated_Source\PSoC4/CapSense_Processing.c **** *   Note that this API updates data associated only with the sensor. It cannot be used to update
1095:Generated_Source\PSoC4/CapSense_Processing.c **** *   widget status.
1096:Generated_Source\PSoC4/CapSense_Processing.c **** *
1097:Generated_Source\PSoC4/CapSense_Processing.c **** * \param ptrFlashWdgt The pointer to the Flash widget structure.
1098:Generated_Source\PSoC4/CapSense_Processing.c **** * \param curSnsPtr    The pointer to the sensor object in RAM.
1099:Generated_Source\PSoC4/CapSense_Processing.c **** * \param fltrHistV    The pointer to the Filter History Object in RAM.
1100:Generated_Source\PSoC4/CapSense_Processing.c **** * \param mode         The bit-mask with the data processing tasks to be executed.
1101:Generated_Source\PSoC4/CapSense_Processing.c **** *   The mode parameters can take the following values:
1102:Generated_Source\PSoC4/CapSense_Processing.c **** *    - CapSense_PROCESS_FILTER     (0x01) Run Firmware Filter
1103:Generated_Source\PSoC4/CapSense_Processing.c **** *    - CapSense_PROCESS_BASELINE   (0x02) Update Baselines
1104:Generated_Source\PSoC4/CapSense_Processing.c **** *    - CapSense_PROCESS_DIFFCOUNTS (0x04) Update Difference Counts
1105:Generated_Source\PSoC4/CapSense_Processing.c **** *    - CapSense_PROCESS_CALC_NOISE (0x08) Calculate Noise (only if FW Tuning is enabled)
1106:Generated_Source\PSoC4/CapSense_Processing.c **** *    - CapSense_PROCESS_THRESHOLDS (0x10) Update Thresholds (only if FW Tuning is enabled)
1107:Generated_Source\PSoC4/CapSense_Processing.c **** *    - CapSense_PROCESS_ALL               Execute all tasks
1108:Generated_Source\PSoC4/CapSense_Processing.c **** *
1109:Generated_Source\PSoC4/CapSense_Processing.c **** * \return
1110:Generated_Source\PSoC4/CapSense_Processing.c **** *  Returns the status of the specified sensor processing operation:
1111:Generated_Source\PSoC4/CapSense_Processing.c **** *  - CYRET_SUCCESS if operation was successfully completed.
1112:Generated_Source\PSoC4/CapSense_Processing.c **** *  - CapSense_PROCESS_BASELINE_FAILED if baseline processing of any
1113:Generated_Source\PSoC4/CapSense_Processing.c **** *    sensor of the specified widget failed. The result is concatenated with the index
1114:Generated_Source\PSoC4/CapSense_Processing.c **** *    of failed sensor.
1115:Generated_Source\PSoC4/CapSense_Processing.c **** *
1116:Generated_Source\PSoC4/CapSense_Processing.c **** *******************************************************************************/
1117:Generated_Source\PSoC4/CapSense_Processing.c **** uint32 CapSense_DpProcessCsdSensorRawCountsExt(
1118:Generated_Source\PSoC4/CapSense_Processing.c ****                 CapSense_FLASH_WD_STRUCT const *ptrFlashWdgt,
1119:Generated_Source\PSoC4/CapSense_Processing.c ****                 CapSense_RAM_SNS_STRUCT *curSnsPtr,
1120:Generated_Source\PSoC4/CapSense_Processing.c ****                 CapSense_PTR_FILTER_VARIANT fltrHistV,
1121:Generated_Source\PSoC4/CapSense_Processing.c ****                  uint32 mode)
1122:Generated_Source\PSoC4/CapSense_Processing.c **** {
1123:Generated_Source\PSoC4/CapSense_Processing.c ****     uint32 result = CYRET_SUCCESS;
1124:Generated_Source\PSoC4/CapSense_Processing.c ****     uint32  widgetType;
1125:Generated_Source\PSoC4/CapSense_Processing.c ****     CapSense_RAM_WD_BASE_STRUCT *ptrRamWdgt;
1126:Generated_Source\PSoC4/CapSense_Processing.c **** 
1127:Generated_Source\PSoC4/CapSense_Processing.c ****     #if (0u != (CapSense_CSD_AUTOTUNE & CapSense_CSD_SS_TH_EN))
1128:Generated_Source\PSoC4/CapSense_Processing.c ****         SMARTSENSE_CSD_NOISE_ENVELOPE_STRUCT *ptrNoiseEnvelope;
1129:Generated_Source\PSoC4/CapSense_Processing.c ****         #if (CapSense_ENABLE == CapSense_PROXIMITY_WIDGET_EN)
ARM GAS  C:\Users\JANUSD~1\AppData\Local\Temp\ccK195Su.s 			page 24


1130:Generated_Source\PSoC4/CapSense_Processing.c ****             uint32  proximityThreshold;
1131:Generated_Source\PSoC4/CapSense_Processing.c ****         #endif /* (0 != CapSense_PROXIMITY_WIDGET_EN) */
1132:Generated_Source\PSoC4/CapSense_Processing.c **** 
1133:Generated_Source\PSoC4/CapSense_Processing.c ****         /* Need to specify pointer to corresponding sensor's noise-envelope object.*/
1134:Generated_Source\PSoC4/CapSense_Processing.c ****         ptrNoiseEnvelope = ptrFlashWdgt->ptr2NoiseEnvlp;
1135:Generated_Source\PSoC4/CapSense_Processing.c ****     #endif /* (0u != (CapSense_CSD_AUTOTUNE & CapSense_CSD_SS_TH_EN)) */
1136:Generated_Source\PSoC4/CapSense_Processing.c **** 
1137:Generated_Source\PSoC4/CapSense_Processing.c ****     widgetType = ptrFlashWdgt->wdgtType;
1138:Generated_Source\PSoC4/CapSense_Processing.c ****     ptrRamWdgt = (CapSense_RAM_WD_BASE_STRUCT *)ptrFlashWdgt->ptr2WdgtRam;
1139:Generated_Source\PSoC4/CapSense_Processing.c **** 
1140:Generated_Source\PSoC4/CapSense_Processing.c ****     #if (CapSense_ENABLE == CapSense_RC_FILTER_EN)
1141:Generated_Source\PSoC4/CapSense_Processing.c ****         if (0u != (mode & CapSense_PROCESS_FILTER))
1142:Generated_Source\PSoC4/CapSense_Processing.c ****         {
1143:Generated_Source\PSoC4/CapSense_Processing.c ****             CapSense_FtRunEnabledFiltersInternal(fltrHistV, curSnsPtr, widgetType);
1144:Generated_Source\PSoC4/CapSense_Processing.c ****             #if (CapSense_ALP_FILTER_EN)
1145:Generated_Source\PSoC4/CapSense_Processing.c ****                 CapSense_ConfigRunALPInternal(fltrHistV, ptrRamWdgt, curSnsPtr, widgetType);
1146:Generated_Source\PSoC4/CapSense_Processing.c ****             #endif
1147:Generated_Source\PSoC4/CapSense_Processing.c ****         }
1148:Generated_Source\PSoC4/CapSense_Processing.c ****     #else
1149:Generated_Source\PSoC4/CapSense_Processing.c ****         (void)fltrHistV; /* This parameter is unused in such configurations */
1150:Generated_Source\PSoC4/CapSense_Processing.c ****     #endif /* #if (CapSense_ENABLE == CapSense_RC_FILTER_EN) */
1151:Generated_Source\PSoC4/CapSense_Processing.c **** 
1152:Generated_Source\PSoC4/CapSense_Processing.c ****     #if (0u != (CapSense_CSD_AUTOTUNE & CapSense_CSD_SS_TH_EN))
1153:Generated_Source\PSoC4/CapSense_Processing.c ****         if (0u != (mode & CapSense_PROCESS_CALC_NOISE))
1154:Generated_Source\PSoC4/CapSense_Processing.c ****         {
1155:Generated_Source\PSoC4/CapSense_Processing.c ****             SmartSense_RunNoiseEnvelope(curSnsPtr->raw[0u], ptrRamWdgt->sigPFC, ptrNoiseEnvelope);
1156:Generated_Source\PSoC4/CapSense_Processing.c ****         }
1157:Generated_Source\PSoC4/CapSense_Processing.c **** 
1158:Generated_Source\PSoC4/CapSense_Processing.c ****         if (0u != (mode & CapSense_PROCESS_THRESHOLDS))
1159:Generated_Source\PSoC4/CapSense_Processing.c ****         {
1160:Generated_Source\PSoC4/CapSense_Processing.c ****             CapSense_DpUpdateThresholds(ptrRamWdgt, ptrNoiseEnvelope, 0u);
1161:Generated_Source\PSoC4/CapSense_Processing.c **** 
1162:Generated_Source\PSoC4/CapSense_Processing.c ****             /* Calculate Proximity Touch Threshold in SmartSense mode based on Finger Threshold and
1163:Generated_Source\PSoC4/CapSense_Processing.c ****             #if (CapSense_ENABLE == CapSense_PROXIMITY_WIDGET_EN)
1164:Generated_Source\PSoC4/CapSense_Processing.c ****                 if (CapSense_WD_PROXIMITY_E == CapSense_GET_WIDGET_TYPE(ptrFlashWdgt))
1165:Generated_Source\PSoC4/CapSense_Processing.c ****                 {
1166:Generated_Source\PSoC4/CapSense_Processing.c ****                     proximityThreshold = ((uint32)ptrRamWdgt->fingerTh * CapSense_PROX_TOUCH_COEFF)
1167:Generated_Source\PSoC4/CapSense_Processing.c ****                     if ((((1Lu) << CapSense_THRESHOLD_SIZE) - 1u) < proximityThreshold)
1168:Generated_Source\PSoC4/CapSense_Processing.c ****                     {
1169:Generated_Source\PSoC4/CapSense_Processing.c ****                         proximityThreshold = ((1Lu) << CapSense_THRESHOLD_SIZE) - 1u;
1170:Generated_Source\PSoC4/CapSense_Processing.c ****                     }
1171:Generated_Source\PSoC4/CapSense_Processing.c ****                     ((CapSense_RAM_WD_PROXIMITY_STRUCT *)ptrFlashWdgt->ptr2WdgtRam)->proxTouchTh =
1172:Generated_Source\PSoC4/CapSense_Processing.c ****                         (CapSense_THRESHOLD_TYPE)proximityThreshold;
1173:Generated_Source\PSoC4/CapSense_Processing.c ****                 }
1174:Generated_Source\PSoC4/CapSense_Processing.c ****             #endif /* (0 != CapSense_PROXIMITY_WIDGET_EN) */
1175:Generated_Source\PSoC4/CapSense_Processing.c ****         }
1176:Generated_Source\PSoC4/CapSense_Processing.c ****     #endif /* #if (0u != (CapSense_CSD_AUTOTUNE & CapSense_CSD_SS_TH_EN)) */
1177:Generated_Source\PSoC4/CapSense_Processing.c **** 
1178:Generated_Source\PSoC4/CapSense_Processing.c ****     if (0u != (mode & CapSense_PROCESS_BASELINE))
1179:Generated_Source\PSoC4/CapSense_Processing.c ****     {
1180:Generated_Source\PSoC4/CapSense_Processing.c ****         result = CapSense_FtUpdateBaseline(ptrRamWdgt, curSnsPtr, widgetType);
1181:Generated_Source\PSoC4/CapSense_Processing.c ****     }
1182:Generated_Source\PSoC4/CapSense_Processing.c **** 
1183:Generated_Source\PSoC4/CapSense_Processing.c ****     if (0u != (mode & CapSense_PROCESS_DIFFCOUNTS))
1184:Generated_Source\PSoC4/CapSense_Processing.c ****     {
1185:Generated_Source\PSoC4/CapSense_Processing.c ****         CapSense_DpUpdateDifferences(ptrRamWdgt, curSnsPtr);
1186:Generated_Source\PSoC4/CapSense_Processing.c ****     }
ARM GAS  C:\Users\JANUSD~1\AppData\Local\Temp\ccK195Su.s 			page 25


1187:Generated_Source\PSoC4/CapSense_Processing.c ****     return result;
1188:Generated_Source\PSoC4/CapSense_Processing.c **** }
1189:Generated_Source\PSoC4/CapSense_Processing.c **** 
1190:Generated_Source\PSoC4/CapSense_Processing.c **** /*******************************************************************************
1191:Generated_Source\PSoC4/CapSense_Processing.c **** * Function Name: CapSense_DpProcessCsdWidgetStatus
1192:Generated_Source\PSoC4/CapSense_Processing.c **** ****************************************************************************//**
1193:Generated_Source\PSoC4/CapSense_Processing.c **** *
1194:Generated_Source\PSoC4/CapSense_Processing.c **** * \brief
1195:Generated_Source\PSoC4/CapSense_Processing.c **** *  Runs the status processing of the CSD widget and updates it in the Data Structure.
1196:Generated_Source\PSoC4/CapSense_Processing.c **** *
1197:Generated_Source\PSoC4/CapSense_Processing.c **** * \details
1198:Generated_Source\PSoC4/CapSense_Processing.c **** *  This API determines the widget type and calls the appropriate low-level processing
1199:Generated_Source\PSoC4/CapSense_Processing.c **** *  function. Based on the returned results it updates the widget and sensor
1200:Generated_Source\PSoC4/CapSense_Processing.c **** *  status in the data structure. Any widget specific registers like the centroid
1201:Generated_Source\PSoC4/CapSense_Processing.c **** *  position are updated directly in the low-level processing function.
1202:Generated_Source\PSoC4/CapSense_Processing.c **** *
1203:Generated_Source\PSoC4/CapSense_Processing.c **** *  When the widget-specific processing completes this API updates the snsStatus
1204:Generated_Source\PSoC4/CapSense_Processing.c **** *  and wdgtStatus registers in the data structure. The wdgtStatus register
1205:Generated_Source\PSoC4/CapSense_Processing.c **** *  is a bitmask were each bit corresponds to the specific widget identified by
1206:Generated_Source\PSoC4/CapSense_Processing.c **** *  the widget index. When the bit is set the widget is active (touched);
1207:Generated_Source\PSoC4/CapSense_Processing.c **** *
1208:Generated_Source\PSoC4/CapSense_Processing.c **** *  The snsStatus register for CSD widgets contains status of each widget sensor
1209:Generated_Source\PSoC4/CapSense_Processing.c **** *  (active/non-active). Each bit corresponds to one sensor. In case of the
1210:Generated_Source\PSoC4/CapSense_Processing.c **** *  Proximity widget two bits are used per sensor: one for proximity status and
1211:Generated_Source\PSoC4/CapSense_Processing.c **** *  second for the touch status.
1212:Generated_Source\PSoC4/CapSense_Processing.c **** *
1213:Generated_Source\PSoC4/CapSense_Processing.c **** * \param widgetId      The widget index number.
1214:Generated_Source\PSoC4/CapSense_Processing.c **** * \param ptrFlashWdgt  The pointer to the Flash widget structure.
1215:Generated_Source\PSoC4/CapSense_Processing.c **** *
1216:Generated_Source\PSoC4/CapSense_Processing.c **** *******************************************************************************/
1217:Generated_Source\PSoC4/CapSense_Processing.c **** void CapSense_DpProcessCsdWidgetStatus(uint32 widgetId, CapSense_FLASH_WD_STRUCT const *ptrFlashWdg
1218:Generated_Source\PSoC4/CapSense_Processing.c **** {
1219:Generated_Source\PSoC4/CapSense_Processing.c ****     uint32 sensorStatus;
1220:Generated_Source\PSoC4/CapSense_Processing.c ****     uint32 wdStatusIndex;
1221:Generated_Source\PSoC4/CapSense_Processing.c ****     uint32 wdStatusMask;
1222:Generated_Source\PSoC4/CapSense_Processing.c ****     CapSense_WD_TYPE_ENUM widgetType;
1223:Generated_Source\PSoC4/CapSense_Processing.c **** 
1224:Generated_Source\PSoC4/CapSense_Processing.c ****     widgetType = (CapSense_WD_TYPE_ENUM)ptrFlashWdgt->wdgtType;
1225:Generated_Source\PSoC4/CapSense_Processing.c ****     sensorStatus = CapSense_dsRam.snsStatus[widgetId];
1226:Generated_Source\PSoC4/CapSense_Processing.c **** 
1227:Generated_Source\PSoC4/CapSense_Processing.c ****     switch (widgetType)
1228:Generated_Source\PSoC4/CapSense_Processing.c ****     {
1229:Generated_Source\PSoC4/CapSense_Processing.c ****     #if (0u != CapSense_BUTTON_WIDGET_EN)
1230:Generated_Source\PSoC4/CapSense_Processing.c ****         case CapSense_WD_BUTTON_E:
1231:Generated_Source\PSoC4/CapSense_Processing.c ****             sensorStatus = CapSense_DpProcessButton(sensorStatus, ptrFlashWdgt);
1232:Generated_Source\PSoC4/CapSense_Processing.c ****             break;
1233:Generated_Source\PSoC4/CapSense_Processing.c ****     #endif /* #if (0u != CapSense_BUTTON_WIDGET_EN) */
1234:Generated_Source\PSoC4/CapSense_Processing.c **** 
1235:Generated_Source\PSoC4/CapSense_Processing.c ****     #if (0u != CapSense_SLIDER_WIDGET_EN)
1236:Generated_Source\PSoC4/CapSense_Processing.c ****         case CapSense_WD_LINEAR_SLIDER_E:
1237:Generated_Source\PSoC4/CapSense_Processing.c ****         case CapSense_WD_RADIAL_SLIDER_E:
1238:Generated_Source\PSoC4/CapSense_Processing.c ****             sensorStatus = CapSense_DpProcessSlider(sensorStatus, ptrFlashWdgt);
1239:Generated_Source\PSoC4/CapSense_Processing.c ****             break;
1240:Generated_Source\PSoC4/CapSense_Processing.c ****     #endif /* #if (0u != CapSense_SLIDER_WIDGET_EN) */
1241:Generated_Source\PSoC4/CapSense_Processing.c **** 
1242:Generated_Source\PSoC4/CapSense_Processing.c ****     #if (0u != CapSense_CSD_MATRIX_WIDGET_EN)
1243:Generated_Source\PSoC4/CapSense_Processing.c ****         case CapSense_WD_MATRIX_BUTTON_E:
ARM GAS  C:\Users\JANUSD~1\AppData\Local\Temp\ccK195Su.s 			page 26


1244:Generated_Source\PSoC4/CapSense_Processing.c ****             sensorStatus = CapSense_DpProcessCsdMatrix(sensorStatus, ptrFlashWdgt);
1245:Generated_Source\PSoC4/CapSense_Processing.c ****             break;
1246:Generated_Source\PSoC4/CapSense_Processing.c ****     #endif /* #if (0u != CapSense_CSD_MATRIX_WIDGET_EN) */
1247:Generated_Source\PSoC4/CapSense_Processing.c **** 
1248:Generated_Source\PSoC4/CapSense_Processing.c ****     #if (0u != CapSense_CSD_TOUCHPAD_WIDGET_EN)
1249:Generated_Source\PSoC4/CapSense_Processing.c ****         case CapSense_WD_TOUCHPAD_E:
1250:Generated_Source\PSoC4/CapSense_Processing.c ****             sensorStatus = CapSense_DpProcessCsdTouchpad(sensorStatus, ptrFlashWdgt);
1251:Generated_Source\PSoC4/CapSense_Processing.c ****             #if (0u != CapSense_BALLISTIC_MULTIPLIER_EN)
1252:Generated_Source\PSoC4/CapSense_Processing.c ****                 CapSense_RunBallisticMultiplier(widgetId);
1253:Generated_Source\PSoC4/CapSense_Processing.c ****             #endif /* (0u != CapSense_BALLISTIC_MULTIPLIER_EN) */
1254:Generated_Source\PSoC4/CapSense_Processing.c ****             break;
1255:Generated_Source\PSoC4/CapSense_Processing.c ****     #endif /* #if (0u != CapSense_CSD_TOUCHPAD_WIDGET_EN) */
1256:Generated_Source\PSoC4/CapSense_Processing.c **** 
1257:Generated_Source\PSoC4/CapSense_Processing.c ****     #if (0u != CapSense_PROXIMITY_WIDGET_EN)
1258:Generated_Source\PSoC4/CapSense_Processing.c ****         case CapSense_WD_PROXIMITY_E:
1259:Generated_Source\PSoC4/CapSense_Processing.c ****             sensorStatus = CapSense_DpProcessProximity(sensorStatus, ptrFlashWdgt);
1260:Generated_Source\PSoC4/CapSense_Processing.c ****             break;
1261:Generated_Source\PSoC4/CapSense_Processing.c ****     #endif /* #if (0u != CapSense_PROXIMITY_WIDGET_EN) */
1262:Generated_Source\PSoC4/CapSense_Processing.c **** 
1263:Generated_Source\PSoC4/CapSense_Processing.c ****     default:
1264:Generated_Source\PSoC4/CapSense_Processing.c ****         CYASSERT(0u);
1265:Generated_Source\PSoC4/CapSense_Processing.c ****         break;
1266:Generated_Source\PSoC4/CapSense_Processing.c ****     }
1267:Generated_Source\PSoC4/CapSense_Processing.c **** 
1268:Generated_Source\PSoC4/CapSense_Processing.c ****     CapSense_dsRam.snsStatus[widgetId] = (CapSense_SNS_STS_TYPE)sensorStatus;
1269:Generated_Source\PSoC4/CapSense_Processing.c **** 
1270:Generated_Source\PSoC4/CapSense_Processing.c ****     /* The next two lines calculate index and bitmask of the widget status bit in the wdgtStatus ar
1271:Generated_Source\PSoC4/CapSense_Processing.c ****     wdStatusIndex = CapSense_GET_WDGT_STATUS_INDEX(widgetId);
1272:Generated_Source\PSoC4/CapSense_Processing.c ****     wdStatusMask = CapSense_GET_WDGT_STATUS_MASK(widgetId);
1273:Generated_Source\PSoC4/CapSense_Processing.c **** 
1274:Generated_Source\PSoC4/CapSense_Processing.c ****     /* Check if there are active sensors and update widget status accordingly */
1275:Generated_Source\PSoC4/CapSense_Processing.c ****     if (0u == sensorStatus)
1276:Generated_Source\PSoC4/CapSense_Processing.c ****     {
1277:Generated_Source\PSoC4/CapSense_Processing.c ****         CapSense_dsRam.wdgtStatus[wdStatusIndex] &= ~wdStatusMask;
1278:Generated_Source\PSoC4/CapSense_Processing.c ****     }
1279:Generated_Source\PSoC4/CapSense_Processing.c ****     else
1280:Generated_Source\PSoC4/CapSense_Processing.c ****     {
1281:Generated_Source\PSoC4/CapSense_Processing.c ****         CapSense_dsRam.wdgtStatus[wdStatusIndex] |= wdStatusMask;
1282:Generated_Source\PSoC4/CapSense_Processing.c ****     }
1283:Generated_Source\PSoC4/CapSense_Processing.c **** }
1284:Generated_Source\PSoC4/CapSense_Processing.c **** #endif /* #if (0u != CapSense_TOTAL_CSD_WIDGETS) */
1285:Generated_Source\PSoC4/CapSense_Processing.c **** 
1286:Generated_Source\PSoC4/CapSense_Processing.c **** 
1287:Generated_Source\PSoC4/CapSense_Processing.c **** #if (0 != (CapSense_CSD_AUTOTUNE & CapSense_CSD_SS_TH_EN))
1288:Generated_Source\PSoC4/CapSense_Processing.c **** /*******************************************************************************
1289:Generated_Source\PSoC4/CapSense_Processing.c **** * Function Name: CapSense_DpUpdateThresholds
1290:Generated_Source\PSoC4/CapSense_Processing.c **** ****************************************************************************//**
1291:Generated_Source\PSoC4/CapSense_Processing.c **** *
1292:Generated_Source\PSoC4/CapSense_Processing.c **** * \brief
1293:Generated_Source\PSoC4/CapSense_Processing.c **** *   Updates noise and finger thresholds for a specified widget.
1294:Generated_Source\PSoC4/CapSense_Processing.c **** *
1295:Generated_Source\PSoC4/CapSense_Processing.c **** * \details
1296:Generated_Source\PSoC4/CapSense_Processing.c **** *   Updates noise and finger thresholds for a specified widget.
1297:Generated_Source\PSoC4/CapSense_Processing.c **** *   This algorithm is a part of Auto-tuning feature.
1298:Generated_Source\PSoC4/CapSense_Processing.c **** *
1299:Generated_Source\PSoC4/CapSense_Processing.c **** * \param ptrRamWdgt       The pointer to the RAM widget object.
1300:Generated_Source\PSoC4/CapSense_Processing.c **** * \param ptrNoiseEnvelope The pointer to the noise-envelope object in RAM.
ARM GAS  C:\Users\JANUSD~1\AppData\Local\Temp\ccK195Su.s 			page 27


1301:Generated_Source\PSoC4/CapSense_Processing.c **** * \param startFlag        The flag indicates when new widget is processed.
1302:Generated_Source\PSoC4/CapSense_Processing.c **** *
1303:Generated_Source\PSoC4/CapSense_Processing.c **** *******************************************************************************/
1304:Generated_Source\PSoC4/CapSense_Processing.c **** void CapSense_DpUpdateThresholds(CapSense_RAM_WD_BASE_STRUCT *ptrRamWdgt,
1305:Generated_Source\PSoC4/CapSense_Processing.c ****                                          SMARTSENSE_CSD_NOISE_ENVELOPE_STRUCT *ptrNoiseEnvelope,
1306:Generated_Source\PSoC4/CapSense_Processing.c ****                                          uint32 startFlag)
1307:Generated_Source\PSoC4/CapSense_Processing.c **** {
1308:Generated_Source\PSoC4/CapSense_Processing.c ****     SMARTSENSE_UPDATE_THRESHOLDS_STRUCT thresholds;
1309:Generated_Source\PSoC4/CapSense_Processing.c ****     SMARTSENSE_UPDATE_THRESHOLDS_STRUCT *ptrThresholds = &thresholds;
1310:Generated_Source\PSoC4/CapSense_Processing.c ****     ptrThresholds->fingerTh = ptrRamWdgt->fingerTh;
1311:Generated_Source\PSoC4/CapSense_Processing.c **** 
1312:Generated_Source\PSoC4/CapSense_Processing.c ****     SmartSense_UpdateThresholds(ptrNoiseEnvelope, ptrThresholds, ptrRamWdgt->sigPFC, startFlag);
1313:Generated_Source\PSoC4/CapSense_Processing.c **** 
1314:Generated_Source\PSoC4/CapSense_Processing.c ****     ptrRamWdgt->fingerTh = ptrThresholds->fingerTh;
1315:Generated_Source\PSoC4/CapSense_Processing.c ****     ptrRamWdgt->noiseTh = ptrThresholds->noiseTh;
1316:Generated_Source\PSoC4/CapSense_Processing.c ****     ptrRamWdgt->nNoiseTh = ptrThresholds->nNoiseTh;
1317:Generated_Source\PSoC4/CapSense_Processing.c ****     ptrRamWdgt->hysteresis = ptrThresholds->hysteresis;
1318:Generated_Source\PSoC4/CapSense_Processing.c **** }
1319:Generated_Source\PSoC4/CapSense_Processing.c **** #endif /* #if (0u != (CapSense_CSD_AUTOTUNE & CapSense_CSD_SS_TH_EN)) */
1320:Generated_Source\PSoC4/CapSense_Processing.c **** 
1321:Generated_Source\PSoC4/CapSense_Processing.c **** 
1322:Generated_Source\PSoC4/CapSense_Processing.c **** /*******************************************************************************
1323:Generated_Source\PSoC4/CapSense_Processing.c **** * Function Name: CapSense_DpUpdateDifferences
1324:Generated_Source\PSoC4/CapSense_Processing.c **** ****************************************************************************//**
1325:Generated_Source\PSoC4/CapSense_Processing.c **** *
1326:Generated_Source\PSoC4/CapSense_Processing.c **** * \brief
1327:Generated_Source\PSoC4/CapSense_Processing.c **** *   Calculates new difference values.
1328:Generated_Source\PSoC4/CapSense_Processing.c **** *   Also, executes the multi-frequency scan algorithm if it is enabled.
1329:Generated_Source\PSoC4/CapSense_Processing.c **** *
1330:Generated_Source\PSoC4/CapSense_Processing.c **** * \details
1331:Generated_Source\PSoC4/CapSense_Processing.c **** *   This API calculates the difference between the baseline and raw counts.
1332:Generated_Source\PSoC4/CapSense_Processing.c **** *   If the difference is positive (raw > baseline), and higher than the widget
1333:Generated_Source\PSoC4/CapSense_Processing.c **** *   noise threshold, it is saved into the data structure for further processing.
1334:Generated_Source\PSoC4/CapSense_Processing.c **** *   Otherwise the difference is set to zero. The final difference value is saved
1335:Generated_Source\PSoC4/CapSense_Processing.c **** *   with the subtracted noise threshold value.
1336:Generated_Source\PSoC4/CapSense_Processing.c **** *
1337:Generated_Source\PSoC4/CapSense_Processing.c **** *   If the multi-frequency scan algorithm is enabled, the difference is calculated
1338:Generated_Source\PSoC4/CapSense_Processing.c **** *   for the three sets of data available for each sensor. Then
1339:Generated_Source\PSoC4/CapSense_Processing.c **** *   the median filter selects the final difference value.
1340:Generated_Source\PSoC4/CapSense_Processing.c **** *
1341:Generated_Source\PSoC4/CapSense_Processing.c **** * \param ptrRamWdgt The pointer to the RAR Widget Object.
1342:Generated_Source\PSoC4/CapSense_Processing.c **** * \param curSnsPtr  The pointer to the sensor object in RAM.
1343:Generated_Source\PSoC4/CapSense_Processing.c **** *
1344:Generated_Source\PSoC4/CapSense_Processing.c **** *******************************************************************************/
1345:Generated_Source\PSoC4/CapSense_Processing.c **** void CapSense_DpUpdateDifferences(
1346:Generated_Source\PSoC4/CapSense_Processing.c ****                         CapSense_RAM_WD_BASE_STRUCT *ptrRamWdgt,
1347:Generated_Source\PSoC4/CapSense_Processing.c ****                         CapSense_RAM_SNS_STRUCT *curSnsPtr)
1348:Generated_Source\PSoC4/CapSense_Processing.c **** {
 172              		.loc 1 1348 0
 173              		.cfi_startproc
 174              		@ args = 0, pretend = 0, frame = 0
 175              		@ frame_needed = 0, uses_anonymous_args = 0
 176              	.LVL22:
 177 0000 30B5     		push	{r4, r5, lr}
 178              		.cfi_def_cfa_offset 12
 179              		.cfi_offset 4, -12
 180              		.cfi_offset 5, -8
ARM GAS  C:\Users\JANUSD~1\AppData\Local\Temp\ccK195Su.s 			page 28


 181              		.cfi_offset 14, -4
 182              	.LVL23:
1349:Generated_Source\PSoC4/CapSense_Processing.c ****     register int32 diffValue = 0;
1350:Generated_Source\PSoC4/CapSense_Processing.c **** 
1351:Generated_Source\PSoC4/CapSense_Processing.c ****     #if (0u != CapSense_MULTI_FREQ_SCAN_EN)
1352:Generated_Source\PSoC4/CapSense_Processing.c ****         register int32 diffValue_0 = 0;
1353:Generated_Source\PSoC4/CapSense_Processing.c ****         register int32 diffValue_2 = 0;
1354:Generated_Source\PSoC4/CapSense_Processing.c ****     #endif /* #if (0u != CapSense_MULTI_FREQ_SCAN_EN) */
1355:Generated_Source\PSoC4/CapSense_Processing.c **** 
1356:Generated_Source\PSoC4/CapSense_Processing.c ****     /* Calculate difference */
1357:Generated_Source\PSoC4/CapSense_Processing.c ****     diffValue = (int32)curSnsPtr->raw[0u] - (int32)curSnsPtr->bsln[0u];
 183              		.loc 1 1357 0
 184 0002 0B88     		ldrh	r3, [r1]
 185 0004 4A88     		ldrh	r2, [r1, #2]
 186 0006 9C1A     		subs	r4, r3, r2
 187              	.LVL24:
1358:Generated_Source\PSoC4/CapSense_Processing.c **** 
1359:Generated_Source\PSoC4/CapSense_Processing.c ****     #if (0u != CapSense_MULTI_FREQ_SCAN_EN)
1360:Generated_Source\PSoC4/CapSense_Processing.c ****         diffValue_0 = (int32)curSnsPtr->raw[1u] - (int32)curSnsPtr->bsln[1u];
1361:Generated_Source\PSoC4/CapSense_Processing.c ****         diffValue_2 = (int32)curSnsPtr->raw[2u] - (int32)curSnsPtr->bsln[2u];
1362:Generated_Source\PSoC4/CapSense_Processing.c **** 
1363:Generated_Source\PSoC4/CapSense_Processing.c ****         /* Find median and put it into [0u] element */
1364:Generated_Source\PSoC4/CapSense_Processing.c ****         if (diffValue_0 > diffValue)
1365:Generated_Source\PSoC4/CapSense_Processing.c ****         {
1366:Generated_Source\PSoC4/CapSense_Processing.c ****             register int32 swapv = diffValue_0;
1367:Generated_Source\PSoC4/CapSense_Processing.c ****             diffValue_0 = diffValue;
1368:Generated_Source\PSoC4/CapSense_Processing.c ****             diffValue = swapv;
1369:Generated_Source\PSoC4/CapSense_Processing.c ****         }
1370:Generated_Source\PSoC4/CapSense_Processing.c **** 
1371:Generated_Source\PSoC4/CapSense_Processing.c ****         if (diffValue > diffValue_2)
1372:Generated_Source\PSoC4/CapSense_Processing.c ****         {
1373:Generated_Source\PSoC4/CapSense_Processing.c ****             register int32 swapv = diffValue;
1374:Generated_Source\PSoC4/CapSense_Processing.c ****             diffValue = diffValue_2;
1375:Generated_Source\PSoC4/CapSense_Processing.c ****             diffValue_2 = swapv;
1376:Generated_Source\PSoC4/CapSense_Processing.c ****         }
1377:Generated_Source\PSoC4/CapSense_Processing.c **** 
1378:Generated_Source\PSoC4/CapSense_Processing.c ****         if (diffValue_0 > diffValue)
1379:Generated_Source\PSoC4/CapSense_Processing.c ****         {
1380:Generated_Source\PSoC4/CapSense_Processing.c ****             register int32 swapv = diffValue_0;
1381:Generated_Source\PSoC4/CapSense_Processing.c ****             diffValue_0 = diffValue;
1382:Generated_Source\PSoC4/CapSense_Processing.c ****             diffValue = swapv;
1383:Generated_Source\PSoC4/CapSense_Processing.c ****         }
1384:Generated_Source\PSoC4/CapSense_Processing.c ****     #endif /* #if (0u != CapSense_MULTI_FREQ_SCAN_EN) */
1385:Generated_Source\PSoC4/CapSense_Processing.c **** 
1386:Generated_Source\PSoC4/CapSense_Processing.c ****     curSnsPtr->diff = 0u;
 188              		.loc 1 1386 0
 189 0008 0025     		movs	r5, #0
 190 000a CD80     		strh	r5, [r1, #6]
1387:Generated_Source\PSoC4/CapSense_Processing.c **** 
1388:Generated_Source\PSoC4/CapSense_Processing.c ****     if (diffValue > (int32)ptrRamWdgt->noiseTh)
 191              		.loc 1 1388 0
 192 000c 0079     		ldrb	r0, [r0, #4]
 193              	.LVL25:
 194 000e 8442     		cmp	r4, r0
 195 0010 00DD     		ble	.L14
1389:Generated_Source\PSoC4/CapSense_Processing.c ****     {
1390:Generated_Source\PSoC4/CapSense_Processing.c ****         curSnsPtr->diff = (CapSense_THRESHOLD_TYPE) diffValue;
ARM GAS  C:\Users\JANUSD~1\AppData\Local\Temp\ccK195Su.s 			page 29


 196              		.loc 1 1390 0
 197 0012 CC80     		strh	r4, [r1, #6]
 198              	.L14:
1391:Generated_Source\PSoC4/CapSense_Processing.c ****     }
1392:Generated_Source\PSoC4/CapSense_Processing.c **** }
 199              		.loc 1 1392 0
 200              		@ sp needed
 201              	.LVL26:
 202 0014 30BD     		pop	{r4, r5, pc}
 203              		.cfi_endproc
 204              	.LFE7:
 205              		.size	CapSense_DpUpdateDifferences, .-CapSense_DpUpdateDifferences
 206 0016 C046     		.section	.text.CapSense_DpProcessCsdWidgetRawCounts,"ax",%progbits
 207              		.align	2
 208              		.global	CapSense_DpProcessCsdWidgetRawCounts
 209              		.code	16
 210              		.thumb_func
 211              		.type	CapSense_DpProcessCsdWidgetRawCounts, %function
 212              	CapSense_DpProcessCsdWidgetRawCounts:
 213              	.LFB4:
 988:Generated_Source\PSoC4/CapSense_Processing.c ****     uint32  result = CYRET_SUCCESS;
 214              		.loc 1 988 0
 215              		.cfi_startproc
 216              		@ args = 0, pretend = 0, frame = 8
 217              		@ frame_needed = 0, uses_anonymous_args = 0
 218              	.LVL27:
 219 0000 F0B5     		push	{r4, r5, r6, r7, lr}
 220              		.cfi_def_cfa_offset 20
 221              		.cfi_offset 4, -20
 222              		.cfi_offset 5, -16
 223              		.cfi_offset 6, -12
 224              		.cfi_offset 7, -8
 225              		.cfi_offset 14, -4
 226 0002 83B0     		sub	sp, sp, #12
 227              		.cfi_def_cfa_offset 32
 228 0004 0700     		movs	r7, r0
 229              	.LVL28:
1018:Generated_Source\PSoC4/CapSense_Processing.c ****     ptrRamWdgt = (CapSense_RAM_WD_BASE_STRUCT *)ptrFlashWdgt->ptr2WdgtRam;
 230              		.loc 1 1018 0
 231 0006 8468     		ldr	r4, [r0, #8]
 232              	.LVL29:
1019:Generated_Source\PSoC4/CapSense_Processing.c ****     widgetType = ptrFlashWdgt->wdgtType;
 233              		.loc 1 1019 0
 234 0008 4568     		ldr	r5, [r0, #4]
 235              	.LVL30:
1020:Generated_Source\PSoC4/CapSense_Processing.c **** 
 236              		.loc 1 1020 0
 237 000a 837E     		ldrb	r3, [r0, #26]
 238 000c 0193     		str	r3, [sp, #4]
 239              	.LVL31:
1027:Generated_Source\PSoC4/CapSense_Processing.c ****     {
 240              		.loc 1 1027 0
 241 000e 0026     		movs	r6, #0
 989:Generated_Source\PSoC4/CapSense_Processing.c **** 
 242              		.loc 1 989 0
 243 0010 0023     		movs	r3, #0
 244              	.LVL32:
ARM GAS  C:\Users\JANUSD~1\AppData\Local\Temp\ccK195Su.s 			page 30


 245 0012 0093     		str	r3, [sp]
1027:Generated_Source\PSoC4/CapSense_Processing.c ****     {
 246              		.loc 1 1027 0
 247 0014 0BE0     		b	.L17
 248              	.LVL33:
 249              	.L18:
1067:Generated_Source\PSoC4/CapSense_Processing.c ****         #endif /* (CapSense_ENABLE == CapSense_TST_BSLN_DUPLICATION_EN) */
 250              		.loc 1 1067 0 discriminator 3
 251 0016 019A     		ldr	r2, [sp, #4]
 252 0018 2100     		movs	r1, r4
 253 001a 2800     		movs	r0, r5
 254 001c FFF7FEFF 		bl	CapSense_FtUpdateBaseline
 255              	.LVL34:
 256 0020 0090     		str	r0, [sp]
 257              	.LVL35:
1070:Generated_Source\PSoC4/CapSense_Processing.c **** 
 258              		.loc 1 1070 0 discriminator 3
 259 0022 2100     		movs	r1, r4
 260 0024 2800     		movs	r0, r5
 261              	.LVL36:
 262 0026 FFF7FEFF 		bl	CapSense_DpUpdateDifferences
 263              	.LVL37:
1073:Generated_Source\PSoC4/CapSense_Processing.c **** 
 264              		.loc 1 1073 0 discriminator 3
 265 002a 0A34     		adds	r4, r4, #10
 266              	.LVL38:
1027:Generated_Source\PSoC4/CapSense_Processing.c ****     {
 267              		.loc 1 1027 0 discriminator 3
 268 002c 0136     		adds	r6, r6, #1
 269              	.LVL39:
 270              	.L17:
1027:Generated_Source\PSoC4/CapSense_Processing.c ****     {
 271              		.loc 1 1027 0 is_stmt 0 discriminator 1
 272 002e 3B8B     		ldrh	r3, [r7, #24]
 273 0030 9E42     		cmp	r6, r3
 274 0032 F0D3     		bcc	.L18
1081:Generated_Source\PSoC4/CapSense_Processing.c **** 
 275              		.loc 1 1081 0 is_stmt 1
 276 0034 0098     		ldr	r0, [sp]
 277 0036 03B0     		add	sp, sp, #12
 278              	.LVL40:
 279              		@ sp needed
 280              	.LVL41:
 281              	.LVL42:
 282              	.LVL43:
 283              	.LVL44:
 284 0038 F0BD     		pop	{r4, r5, r6, r7, pc}
 285              		.cfi_endproc
 286              	.LFE4:
 287              		.size	CapSense_DpProcessCsdWidgetRawCounts, .-CapSense_DpProcessCsdWidgetRawCounts
 288 003a C046     		.section	.text.CapSense_DpProcessCsdSensorRawCountsExt,"ax",%progbits
 289              		.align	2
 290              		.global	CapSense_DpProcessCsdSensorRawCountsExt
 291              		.code	16
 292              		.thumb_func
 293              		.type	CapSense_DpProcessCsdSensorRawCountsExt, %function
 294              	CapSense_DpProcessCsdSensorRawCountsExt:
ARM GAS  C:\Users\JANUSD~1\AppData\Local\Temp\ccK195Su.s 			page 31


 295              	.LFB5:
1122:Generated_Source\PSoC4/CapSense_Processing.c ****     uint32 result = CYRET_SUCCESS;
 296              		.loc 1 1122 0
 297              		.cfi_startproc
 298              		@ args = 0, pretend = 0, frame = 0
 299              		@ frame_needed = 0, uses_anonymous_args = 0
 300              	.LVL45:
 301 0000 F8B5     		push	{r3, r4, r5, r6, r7, lr}
 302              		.cfi_def_cfa_offset 24
 303              		.cfi_offset 3, -24
 304              		.cfi_offset 4, -20
 305              		.cfi_offset 5, -16
 306              		.cfi_offset 6, -12
 307              		.cfi_offset 7, -8
 308              		.cfi_offset 14, -4
 309 0002 0E00     		movs	r6, r1
 310 0004 1C00     		movs	r4, r3
 311              	.LVL46:
1137:Generated_Source\PSoC4/CapSense_Processing.c ****     ptrRamWdgt = (CapSense_RAM_WD_BASE_STRUCT *)ptrFlashWdgt->ptr2WdgtRam;
 312              		.loc 1 1137 0
 313 0006 827E     		ldrb	r2, [r0, #26]
 314              	.LVL47:
1138:Generated_Source\PSoC4/CapSense_Processing.c **** 
 315              		.loc 1 1138 0
 316 0008 4768     		ldr	r7, [r0, #4]
 317              	.LVL48:
1178:Generated_Source\PSoC4/CapSense_Processing.c ****     {
 318              		.loc 1 1178 0
 319 000a A307     		lsls	r3, r4, #30
 320 000c 04D5     		bpl	.L22
 321              	.LVL49:
1180:Generated_Source\PSoC4/CapSense_Processing.c ****     }
 322              		.loc 1 1180 0
 323 000e 3800     		movs	r0, r7
 324              	.LVL50:
 325 0010 FFF7FEFF 		bl	CapSense_FtUpdateBaseline
 326              	.LVL51:
 327 0014 0500     		movs	r5, r0
 328              	.LVL52:
 329 0016 00E0     		b	.L20
 330              	.LVL53:
 331              	.L22:
1123:Generated_Source\PSoC4/CapSense_Processing.c ****     uint32  widgetType;
 332              		.loc 1 1123 0
 333 0018 0025     		movs	r5, #0
 334              	.LVL54:
 335              	.L20:
1183:Generated_Source\PSoC4/CapSense_Processing.c ****     {
 336              		.loc 1 1183 0
 337 001a 6307     		lsls	r3, r4, #29
 338 001c 03D5     		bpl	.L21
1185:Generated_Source\PSoC4/CapSense_Processing.c ****     }
 339              		.loc 1 1185 0
 340 001e 3100     		movs	r1, r6
 341 0020 3800     		movs	r0, r7
 342 0022 FFF7FEFF 		bl	CapSense_DpUpdateDifferences
 343              	.LVL55:
ARM GAS  C:\Users\JANUSD~1\AppData\Local\Temp\ccK195Su.s 			page 32


 344              	.L21:
1188:Generated_Source\PSoC4/CapSense_Processing.c **** 
 345              		.loc 1 1188 0
 346 0026 2800     		movs	r0, r5
 347              		@ sp needed
 348              	.LVL56:
 349              	.LVL57:
 350              	.LVL58:
 351              	.LVL59:
 352 0028 F8BD     		pop	{r3, r4, r5, r6, r7, pc}
 353              		.cfi_endproc
 354              	.LFE5:
 355              		.size	CapSense_DpProcessCsdSensorRawCountsExt, .-CapSense_DpProcessCsdSensorRawCountsExt
 356 002a C046     		.section	.text.CapSense_DpProcessSlider,"ax",%progbits
 357              		.align	2
 358              		.global	CapSense_DpProcessSlider
 359              		.code	16
 360              		.thumb_func
 361              		.type	CapSense_DpProcessSlider, %function
 362              	CapSense_DpProcessSlider:
 363              	.LFB8:
1393:Generated_Source\PSoC4/CapSense_Processing.c **** 
1394:Generated_Source\PSoC4/CapSense_Processing.c **** 
1395:Generated_Source\PSoC4/CapSense_Processing.c **** #if ((0u != CapSense_BUTTON_WIDGET_EN) || (0u != CapSense_CSX_MATRIX_WIDGET_EN))
1396:Generated_Source\PSoC4/CapSense_Processing.c **** /*******************************************************************************
1397:Generated_Source\PSoC4/CapSense_Processing.c **** * Function Name: CapSense_DpProcessButton
1398:Generated_Source\PSoC4/CapSense_Processing.c **** ****************************************************************************//**
1399:Generated_Source\PSoC4/CapSense_Processing.c **** *
1400:Generated_Source\PSoC4/CapSense_Processing.c **** * \brief
1401:Generated_Source\PSoC4/CapSense_Processing.c **** *   Processes the status of the Button widget.
1402:Generated_Source\PSoC4/CapSense_Processing.c **** *
1403:Generated_Source\PSoC4/CapSense_Processing.c **** * \details
1404:Generated_Source\PSoC4/CapSense_Processing.c **** *   This API processes the status of the CSD/CSX Button widget and
1405:Generated_Source\PSoC4/CapSense_Processing.c **** *   CSX Matrix Button widget. It applies the hysteresis and de-bounce algorithm
1406:Generated_Source\PSoC4/CapSense_Processing.c **** *   to each sensor difference value. This API is expected to be called
1407:Generated_Source\PSoC4/CapSense_Processing.c **** *   after each new widget scan. If it is called multiple times for the same
1408:Generated_Source\PSoC4/CapSense_Processing.c **** *   scan data, the de-bounce algorithm will not work properly.
1409:Generated_Source\PSoC4/CapSense_Processing.c **** *
1410:Generated_Source\PSoC4/CapSense_Processing.c **** *   This API does not update any Data Structure registers
1411:Generated_Source\PSoC4/CapSense_Processing.c **** *   except the de-bounce counters.
1412:Generated_Source\PSoC4/CapSense_Processing.c **** *
1413:Generated_Source\PSoC4/CapSense_Processing.c **** * \param currStatus   The current status of the widget sensors.
1414:Generated_Source\PSoC4/CapSense_Processing.c **** * \param ptrFlashWdgt The pointer to the Flash Widget Object.
1415:Generated_Source\PSoC4/CapSense_Processing.c **** *
1416:Generated_Source\PSoC4/CapSense_Processing.c **** * \return Returns the status of the widget's sensors. Bit #0 - corresponds to Sensor #0.
1417:Generated_Source\PSoC4/CapSense_Processing.c **** *
1418:Generated_Source\PSoC4/CapSense_Processing.c **** *******************************************************************************/
1419:Generated_Source\PSoC4/CapSense_Processing.c **** uint32 CapSense_DpProcessButton(uint32 currStatus, CapSense_FLASH_WD_STRUCT const *ptrFlashWdgt)
1420:Generated_Source\PSoC4/CapSense_Processing.c **** {
1421:Generated_Source\PSoC4/CapSense_Processing.c ****     uint32 snsCnt;
1422:Generated_Source\PSoC4/CapSense_Processing.c ****     uint32 snsMask;
1423:Generated_Source\PSoC4/CapSense_Processing.c ****     uint32 newStatus;
1424:Generated_Source\PSoC4/CapSense_Processing.c ****     uint32 touchTh;
1425:Generated_Source\PSoC4/CapSense_Processing.c ****     CapSense_RAM_SNS_STRUCT *ptrSnsTmp;
1426:Generated_Source\PSoC4/CapSense_Processing.c ****     CapSense_RAM_WD_BASE_STRUCT *ptrRamWdgt;
1427:Generated_Source\PSoC4/CapSense_Processing.c ****     uint8 * ptrDebounceCnt;
1428:Generated_Source\PSoC4/CapSense_Processing.c **** 
ARM GAS  C:\Users\JANUSD~1\AppData\Local\Temp\ccK195Su.s 			page 33


1429:Generated_Source\PSoC4/CapSense_Processing.c ****     snsCnt = ptrFlashWdgt->totalNumSns;
1430:Generated_Source\PSoC4/CapSense_Processing.c ****     ptrSnsTmp = ptrFlashWdgt->ptr2SnsRam;
1431:Generated_Source\PSoC4/CapSense_Processing.c ****     ptrRamWdgt = (CapSense_RAM_WD_BASE_STRUCT *)ptrFlashWdgt->ptr2WdgtRam;
1432:Generated_Source\PSoC4/CapSense_Processing.c ****     ptrDebounceCnt = ptrFlashWdgt->ptr2DebounceArr;
1433:Generated_Source\PSoC4/CapSense_Processing.c **** 
1434:Generated_Source\PSoC4/CapSense_Processing.c ****     /* Go through all widget's sensors */
1435:Generated_Source\PSoC4/CapSense_Processing.c ****     snsMask = 1Lu;
1436:Generated_Source\PSoC4/CapSense_Processing.c ****     for (; snsCnt-- > 0u; )
1437:Generated_Source\PSoC4/CapSense_Processing.c ****     {
1438:Generated_Source\PSoC4/CapSense_Processing.c ****         /* Calculate touch threshold taking into account hysteresis
1439:Generated_Source\PSoC4/CapSense_Processing.c ****            and current sensor state. */
1440:Generated_Source\PSoC4/CapSense_Processing.c ****         touchTh = (0u == (currStatus & snsMask)) ?
1441:Generated_Source\PSoC4/CapSense_Processing.c ****                   ((uint32)ptrRamWdgt->fingerTh + ptrRamWdgt->hysteresis) :
1442:Generated_Source\PSoC4/CapSense_Processing.c ****                   ((uint32)ptrRamWdgt->fingerTh - ptrRamWdgt->hysteresis);
1443:Generated_Source\PSoC4/CapSense_Processing.c **** 
1444:Generated_Source\PSoC4/CapSense_Processing.c ****         /* Determine new potential sensor state */
1445:Generated_Source\PSoC4/CapSense_Processing.c ****         newStatus = (ptrSnsTmp->diff > touchTh) ? snsMask : 0u;
1446:Generated_Source\PSoC4/CapSense_Processing.c **** 
1447:Generated_Source\PSoC4/CapSense_Processing.c ****         /* Sensor state changed ? */
1448:Generated_Source\PSoC4/CapSense_Processing.c ****         if (newStatus != (currStatus & snsMask))
1449:Generated_Source\PSoC4/CapSense_Processing.c ****         {
1450:Generated_Source\PSoC4/CapSense_Processing.c ****             /* Decrement de-bounce counter */
1451:Generated_Source\PSoC4/CapSense_Processing.c ****             (*ptrDebounceCnt)--;
1452:Generated_Source\PSoC4/CapSense_Processing.c ****         }
1453:Generated_Source\PSoC4/CapSense_Processing.c **** 
1454:Generated_Source\PSoC4/CapSense_Processing.c ****         /*
1455:Generated_Source\PSoC4/CapSense_Processing.c ****         *  This piece of code has two objectives:
1456:Generated_Source\PSoC4/CapSense_Processing.c ****         *  1. Reset de-bounce counter if the sensor state did not change.
1457:Generated_Source\PSoC4/CapSense_Processing.c ****         *     (It is possible that during previous processing cycles sensor
1458:Generated_Source\PSoC4/CapSense_Processing.c ****         *     was active and de-bounce counter was decremented.)
1459:Generated_Source\PSoC4/CapSense_Processing.c ****         *  2. Set new sensor state after successful de-bounce.
1460:Generated_Source\PSoC4/CapSense_Processing.c ****         */
1461:Generated_Source\PSoC4/CapSense_Processing.c ****         if ((newStatus == (currStatus & snsMask)) || (0u == (*ptrDebounceCnt)))
1462:Generated_Source\PSoC4/CapSense_Processing.c ****         {
1463:Generated_Source\PSoC4/CapSense_Processing.c ****             /* Set new sensor status */
1464:Generated_Source\PSoC4/CapSense_Processing.c ****             currStatus &= ~snsMask;
1465:Generated_Source\PSoC4/CapSense_Processing.c ****             currStatus |= newStatus;
1466:Generated_Source\PSoC4/CapSense_Processing.c **** 
1467:Generated_Source\PSoC4/CapSense_Processing.c ****             /* Reset de-bounce counter */
1468:Generated_Source\PSoC4/CapSense_Processing.c ****             #if (0u != CapSense_OFF_DEBOUNCE_EN)
1469:Generated_Source\PSoC4/CapSense_Processing.c ****                 *ptrDebounceCnt = (0Lu == newStatus) ? ptrRamWdgt->onDebounce : ptrRamWdgt->offDebo
1470:Generated_Source\PSoC4/CapSense_Processing.c ****             #else
1471:Generated_Source\PSoC4/CapSense_Processing.c ****                 *ptrDebounceCnt = (0Lu == newStatus) ? ptrRamWdgt->onDebounce : DEFAULT_OFF_DEBOUNC
1472:Generated_Source\PSoC4/CapSense_Processing.c ****             #endif /* #if (0u != CapSense_OFF_DEBOUNCE_EN) */
1473:Generated_Source\PSoC4/CapSense_Processing.c ****         }
1474:Generated_Source\PSoC4/CapSense_Processing.c **** 
1475:Generated_Source\PSoC4/CapSense_Processing.c ****         /* Move mask to the next sensor */
1476:Generated_Source\PSoC4/CapSense_Processing.c ****         snsMask <<= 1u;
1477:Generated_Source\PSoC4/CapSense_Processing.c **** 
1478:Generated_Source\PSoC4/CapSense_Processing.c ****         ptrSnsTmp++;
1479:Generated_Source\PSoC4/CapSense_Processing.c ****         ptrDebounceCnt++;
1480:Generated_Source\PSoC4/CapSense_Processing.c ****     }
1481:Generated_Source\PSoC4/CapSense_Processing.c **** 
1482:Generated_Source\PSoC4/CapSense_Processing.c ****     return currStatus;
1483:Generated_Source\PSoC4/CapSense_Processing.c **** }
1484:Generated_Source\PSoC4/CapSense_Processing.c **** #endif /* #if ((0u != CapSense_BUTTON_WIDGET_EN) || (0u != CapSense_CSX_MATRIX_WIDGET_EN)) */
1485:Generated_Source\PSoC4/CapSense_Processing.c **** 
ARM GAS  C:\Users\JANUSD~1\AppData\Local\Temp\ccK195Su.s 			page 34


1486:Generated_Source\PSoC4/CapSense_Processing.c **** 
1487:Generated_Source\PSoC4/CapSense_Processing.c **** #if (0u != CapSense_PROXIMITY_WIDGET_EN)
1488:Generated_Source\PSoC4/CapSense_Processing.c **** /*******************************************************************************
1489:Generated_Source\PSoC4/CapSense_Processing.c **** * Function Name: CapSense_DpProcessProximity
1490:Generated_Source\PSoC4/CapSense_Processing.c **** ****************************************************************************//**
1491:Generated_Source\PSoC4/CapSense_Processing.c **** *
1492:Generated_Source\PSoC4/CapSense_Processing.c **** * \brief
1493:Generated_Source\PSoC4/CapSense_Processing.c **** *   Processes the status of the Proximity widget.
1494:Generated_Source\PSoC4/CapSense_Processing.c **** *
1495:Generated_Source\PSoC4/CapSense_Processing.c **** * \details
1496:Generated_Source\PSoC4/CapSense_Processing.c **** *   This API processes the status of the CSD Proximity widget. It applies the
1497:Generated_Source\PSoC4/CapSense_Processing.c **** *   hysteresis and debounce algorithm to each sensor difference value.
1498:Generated_Source\PSoC4/CapSense_Processing.c **** *   The proximity and touch events are considered independently so debounce and
1499:Generated_Source\PSoC4/CapSense_Processing.c **** *   hysteresis are also applied independently.
1500:Generated_Source\PSoC4/CapSense_Processing.c **** *
1501:Generated_Source\PSoC4/CapSense_Processing.c **** *   This API is expected to be called after each new widget scan. If it is
1502:Generated_Source\PSoC4/CapSense_Processing.c **** *   called multiple times for the same scan data the debounce algorithm
1503:Generated_Source\PSoC4/CapSense_Processing.c **** *   will not work properly.
1504:Generated_Source\PSoC4/CapSense_Processing.c **** *
1505:Generated_Source\PSoC4/CapSense_Processing.c **** *   This API does not update any Data Structure registers
1506:Generated_Source\PSoC4/CapSense_Processing.c **** *   except the debounce counters.
1507:Generated_Source\PSoC4/CapSense_Processing.c **** *
1508:Generated_Source\PSoC4/CapSense_Processing.c **** * \param currStatus   The value with the current widget status.
1509:Generated_Source\PSoC4/CapSense_Processing.c **** * \param ptrFlashWdgt The pointer to the Flash Widget Object.
1510:Generated_Source\PSoC4/CapSense_Processing.c **** *
1511:Generated_Source\PSoC4/CapSense_Processing.c **** * \return
1512:Generated_Source\PSoC4/CapSense_Processing.c **** *  Returns the status of the proximity sensors. Each sensor is represented by two bits
1513:Generated_Source\PSoC4/CapSense_Processing.c **** *  that can take the following values:
1514:Generated_Source\PSoC4/CapSense_Processing.c **** *   - 00b not active
1515:Generated_Source\PSoC4/CapSense_Processing.c **** *   - 01b proximity is detected (signal is above finger threshold)
1516:Generated_Source\PSoC4/CapSense_Processing.c **** *   - 11b finger touch is detected (signal is above the touch threshold)
1517:Generated_Source\PSoC4/CapSense_Processing.c **** *
1518:Generated_Source\PSoC4/CapSense_Processing.c **** *******************************************************************************/
1519:Generated_Source\PSoC4/CapSense_Processing.c **** uint32 CapSense_DpProcessProximity(uint32 currStatus, CapSense_FLASH_WD_STRUCT const *ptrFlashWdgt)
1520:Generated_Source\PSoC4/CapSense_Processing.c **** {
1521:Generated_Source\PSoC4/CapSense_Processing.c ****     uint32 currTh;
1522:Generated_Source\PSoC4/CapSense_Processing.c ****     uint32 snsCnt;
1523:Generated_Source\PSoC4/CapSense_Processing.c ****     uint32 snsMask;
1524:Generated_Source\PSoC4/CapSense_Processing.c ****     uint32 newStatus;
1525:Generated_Source\PSoC4/CapSense_Processing.c ****     uint32 difference;
1526:Generated_Source\PSoC4/CapSense_Processing.c **** 
1527:Generated_Source\PSoC4/CapSense_Processing.c ****     uint8 *ptrDebounceCnt;
1528:Generated_Source\PSoC4/CapSense_Processing.c ****     CapSense_RAM_SNS_STRUCT *ptrSnsTmp;
1529:Generated_Source\PSoC4/CapSense_Processing.c ****     CapSense_RAM_WD_PROXIMITY_STRUCT *ptrRamWdgt;
1530:Generated_Source\PSoC4/CapSense_Processing.c **** 
1531:Generated_Source\PSoC4/CapSense_Processing.c ****     /* Mask for proximity status bits. (All odd bits.) */
1532:Generated_Source\PSoC4/CapSense_Processing.c ****     const uint32 proxMask = UINT32_ODD_BITS_CONST;
1533:Generated_Source\PSoC4/CapSense_Processing.c **** 
1534:Generated_Source\PSoC4/CapSense_Processing.c ****     ptrSnsTmp = ptrFlashWdgt->ptr2SnsRam;
1535:Generated_Source\PSoC4/CapSense_Processing.c ****     ptrRamWdgt = (CapSense_RAM_WD_PROXIMITY_STRUCT *)ptrFlashWdgt->ptr2WdgtRam;
1536:Generated_Source\PSoC4/CapSense_Processing.c ****     ptrDebounceCnt = ptrFlashWdgt->ptr2DebounceArr;
1537:Generated_Source\PSoC4/CapSense_Processing.c **** 
1538:Generated_Source\PSoC4/CapSense_Processing.c ****     /* Get number of sensors and multiply it by 2 - proximity and touch statuses per sensor. */
1539:Generated_Source\PSoC4/CapSense_Processing.c ****     snsCnt = (uint32)ptrFlashWdgt->totalNumSns << 1u;
1540:Generated_Source\PSoC4/CapSense_Processing.c **** 
1541:Generated_Source\PSoC4/CapSense_Processing.c ****     /* Go through all sensor's status bits */
1542:Generated_Source\PSoC4/CapSense_Processing.c ****     snsMask = 1Lu;
ARM GAS  C:\Users\JANUSD~1\AppData\Local\Temp\ccK195Su.s 			page 35


1543:Generated_Source\PSoC4/CapSense_Processing.c ****     for (; snsCnt-- > 0u;)
1544:Generated_Source\PSoC4/CapSense_Processing.c ****     {
1545:Generated_Source\PSoC4/CapSense_Processing.c ****         difference = ptrSnsTmp->diff;
1546:Generated_Source\PSoC4/CapSense_Processing.c **** 
1547:Generated_Source\PSoC4/CapSense_Processing.c ****         /* Determine current event (proximity - odd; touch - even) and get appropriate threshold. *
1548:Generated_Source\PSoC4/CapSense_Processing.c ****         currTh = ptrRamWdgt->fingerTh;
1549:Generated_Source\PSoC4/CapSense_Processing.c **** 
1550:Generated_Source\PSoC4/CapSense_Processing.c ****         if (0u == (snsMask & proxMask))
1551:Generated_Source\PSoC4/CapSense_Processing.c ****         {
1552:Generated_Source\PSoC4/CapSense_Processing.c ****             currTh = ptrRamWdgt->proxTouchTh;
1553:Generated_Source\PSoC4/CapSense_Processing.c ****             ptrSnsTmp++;
1554:Generated_Source\PSoC4/CapSense_Processing.c ****         }
1555:Generated_Source\PSoC4/CapSense_Processing.c **** 
1556:Generated_Source\PSoC4/CapSense_Processing.c ****         /* Calculate finger threshold applying hysteresis based on current sensor state. */
1557:Generated_Source\PSoC4/CapSense_Processing.c ****         currTh = (0u == (currStatus & snsMask)) ? (currTh + ptrRamWdgt->hysteresis) : (currTh - ptr
1558:Generated_Source\PSoC4/CapSense_Processing.c **** 
1559:Generated_Source\PSoC4/CapSense_Processing.c ****         /* Determine new potential sensor state before de-bounce */
1560:Generated_Source\PSoC4/CapSense_Processing.c ****         newStatus = (difference > currTh) ? snsMask : 0Lu;
1561:Generated_Source\PSoC4/CapSense_Processing.c **** 
1562:Generated_Source\PSoC4/CapSense_Processing.c ****         /* Sensor state changed ? */
1563:Generated_Source\PSoC4/CapSense_Processing.c ****         if (newStatus != (currStatus & snsMask))
1564:Generated_Source\PSoC4/CapSense_Processing.c ****         {
1565:Generated_Source\PSoC4/CapSense_Processing.c ****             /* Decrement de-bounce counter */
1566:Generated_Source\PSoC4/CapSense_Processing.c ****             (*ptrDebounceCnt)--;
1567:Generated_Source\PSoC4/CapSense_Processing.c ****         }
1568:Generated_Source\PSoC4/CapSense_Processing.c **** 
1569:Generated_Source\PSoC4/CapSense_Processing.c ****         /*
1570:Generated_Source\PSoC4/CapSense_Processing.c ****         *  This piece of code has two objectives:
1571:Generated_Source\PSoC4/CapSense_Processing.c ****         *  1. Reset de-bounce counter if new sensor state has not changed.
1572:Generated_Source\PSoC4/CapSense_Processing.c ****         *     (It is possible that during previous processing cycles the sensor
1573:Generated_Source\PSoC4/CapSense_Processing.c ****         *     state was different which caused de-bounce counter change.)
1574:Generated_Source\PSoC4/CapSense_Processing.c ****         *  2. Set new sensor state after successful de-bounce.
1575:Generated_Source\PSoC4/CapSense_Processing.c ****         */
1576:Generated_Source\PSoC4/CapSense_Processing.c ****         if ((newStatus == (currStatus & snsMask)) || (0u == (*ptrDebounceCnt)))
1577:Generated_Source\PSoC4/CapSense_Processing.c ****         {
1578:Generated_Source\PSoC4/CapSense_Processing.c ****             /* Set new sensor status */
1579:Generated_Source\PSoC4/CapSense_Processing.c ****             currStatus &= ~snsMask;
1580:Generated_Source\PSoC4/CapSense_Processing.c ****             currStatus |= newStatus;
1581:Generated_Source\PSoC4/CapSense_Processing.c **** 
1582:Generated_Source\PSoC4/CapSense_Processing.c ****             /* Reset de-bounce counter */
1583:Generated_Source\PSoC4/CapSense_Processing.c ****             #if (0u != CapSense_OFF_DEBOUNCE_EN)
1584:Generated_Source\PSoC4/CapSense_Processing.c ****                 *ptrDebounceCnt = (0Lu == newStatus) ? ptrRamWdgt->onDebounce : ptrRamWdgt->offDebo
1585:Generated_Source\PSoC4/CapSense_Processing.c ****             #else
1586:Generated_Source\PSoC4/CapSense_Processing.c ****                 *ptrDebounceCnt = (0Lu == newStatus) ? ptrRamWdgt->onDebounce : DEFAULT_OFF_DEBOUNC
1587:Generated_Source\PSoC4/CapSense_Processing.c ****             #endif /* #if (0u != CapSense_OFF_DEBOUNCE_EN) */
1588:Generated_Source\PSoC4/CapSense_Processing.c ****         }
1589:Generated_Source\PSoC4/CapSense_Processing.c **** 
1590:Generated_Source\PSoC4/CapSense_Processing.c ****         ptrDebounceCnt++;
1591:Generated_Source\PSoC4/CapSense_Processing.c **** 
1592:Generated_Source\PSoC4/CapSense_Processing.c ****         /* Move sensor mask to the next sensor */
1593:Generated_Source\PSoC4/CapSense_Processing.c ****         snsMask <<= 1u;
1594:Generated_Source\PSoC4/CapSense_Processing.c ****     }
1595:Generated_Source\PSoC4/CapSense_Processing.c **** 
1596:Generated_Source\PSoC4/CapSense_Processing.c ****     return currStatus;
1597:Generated_Source\PSoC4/CapSense_Processing.c **** }
1598:Generated_Source\PSoC4/CapSense_Processing.c **** #endif /* #if (0u != CapSense_PROXIMITY_WIDGET_EN) */
1599:Generated_Source\PSoC4/CapSense_Processing.c **** 
ARM GAS  C:\Users\JANUSD~1\AppData\Local\Temp\ccK195Su.s 			page 36


1600:Generated_Source\PSoC4/CapSense_Processing.c **** 
1601:Generated_Source\PSoC4/CapSense_Processing.c **** #if (0u != CapSense_SLIDER_WIDGET_EN)
1602:Generated_Source\PSoC4/CapSense_Processing.c **** /*******************************************************************************
1603:Generated_Source\PSoC4/CapSense_Processing.c **** * Function Name: CapSense_DpProcessSlider
1604:Generated_Source\PSoC4/CapSense_Processing.c **** ****************************************************************************//**
1605:Generated_Source\PSoC4/CapSense_Processing.c **** *
1606:Generated_Source\PSoC4/CapSense_Processing.c **** * \brief
1607:Generated_Source\PSoC4/CapSense_Processing.c **** *   Processes the status of the Linear/Radial Slider widget.
1608:Generated_Source\PSoC4/CapSense_Processing.c **** *   The process involves running the Linear/Radial Centroid algorithm.
1609:Generated_Source\PSoC4/CapSense_Processing.c **** *
1610:Generated_Source\PSoC4/CapSense_Processing.c **** * \details
1611:Generated_Source\PSoC4/CapSense_Processing.c **** *   This API processes the status of the CSD Slider widget (Linear and Radial).
1612:Generated_Source\PSoC4/CapSense_Processing.c **** *   It applies the hysteresis and de-bounce algorithm to the widget ignoring
1613:Generated_Source\PSoC4/CapSense_Processing.c **** *   the individual states of the sensors.
1614:Generated_Source\PSoC4/CapSense_Processing.c **** *
1615:Generated_Source\PSoC4/CapSense_Processing.c **** *   This API is expected to be called after each new widget scan. If it is
1616:Generated_Source\PSoC4/CapSense_Processing.c **** *   called multiple times for the same scan data, the debounce algorithm
1617:Generated_Source\PSoC4/CapSense_Processing.c **** *   will not work properly.
1618:Generated_Source\PSoC4/CapSense_Processing.c **** *
1619:Generated_Source\PSoC4/CapSense_Processing.c **** *   Slider widgets do not support the ON to OFF debounce.
1620:Generated_Source\PSoC4/CapSense_Processing.c **** *
1621:Generated_Source\PSoC4/CapSense_Processing.c **** *   This API does not update any Data Structure registers
1622:Generated_Source\PSoC4/CapSense_Processing.c **** *   except the debounce counters.
1623:Generated_Source\PSoC4/CapSense_Processing.c **** *
1624:Generated_Source\PSoC4/CapSense_Processing.c **** * \param currStatus   The current sensor status of the Slider widget.
1625:Generated_Source\PSoC4/CapSense_Processing.c **** * \param ptrFlashWdgt The pointer to the Flash Widget Object.
1626:Generated_Source\PSoC4/CapSense_Processing.c **** *
1627:Generated_Source\PSoC4/CapSense_Processing.c **** * \return Returns the status of the widget's sensors. Bit #0 - corresponds to Sensor #0.
1628:Generated_Source\PSoC4/CapSense_Processing.c **** *
1629:Generated_Source\PSoC4/CapSense_Processing.c **** *******************************************************************************/
1630:Generated_Source\PSoC4/CapSense_Processing.c **** uint32 CapSense_DpProcessSlider(uint32 currStatus, CapSense_FLASH_WD_STRUCT const *ptrFlashWdgt)
1631:Generated_Source\PSoC4/CapSense_Processing.c **** {
 364              		.loc 1 1631 0
 365              		.cfi_startproc
 366              		@ args = 0, pretend = 0, frame = 16
 367              		@ frame_needed = 0, uses_anonymous_args = 0
 368              	.LVL60:
 369 0000 F0B5     		push	{r4, r5, r6, r7, lr}
 370              		.cfi_def_cfa_offset 20
 371              		.cfi_offset 4, -20
 372              		.cfi_offset 5, -16
 373              		.cfi_offset 6, -12
 374              		.cfi_offset 7, -8
 375              		.cfi_offset 14, -4
 376 0002 5F46     		mov	r7, fp
 377 0004 5646     		mov	r6, r10
 378 0006 4D46     		mov	r5, r9
 379 0008 4446     		mov	r4, r8
 380 000a F0B4     		push	{r4, r5, r6, r7}
 381              		.cfi_def_cfa_offset 36
 382              		.cfi_offset 8, -36
 383              		.cfi_offset 9, -32
 384              		.cfi_offset 10, -28
 385              		.cfi_offset 11, -24
 386 000c 85B0     		sub	sp, sp, #20
 387              		.cfi_def_cfa_offset 56
 388 000e 8446     		mov	ip, r0
ARM GAS  C:\Users\JANUSD~1\AppData\Local\Temp\ccK195Su.s 			page 37


 389 0010 8846     		mov	r8, r1
 390              	.LVL61:
1632:Generated_Source\PSoC4/CapSense_Processing.c ****     uint32 snsCnt;
1633:Generated_Source\PSoC4/CapSense_Processing.c ****     uint32 snsMask;
1634:Generated_Source\PSoC4/CapSense_Processing.c ****     uint32 touchTh;
1635:Generated_Source\PSoC4/CapSense_Processing.c ****     uint32 newStatus = 0Lu;
1636:Generated_Source\PSoC4/CapSense_Processing.c ****     uint8 * ptrDebounceCnt;
1637:Generated_Source\PSoC4/CapSense_Processing.c ****     CapSense_RAM_SNS_STRUCT *ptrSnsTmp;
1638:Generated_Source\PSoC4/CapSense_Processing.c ****     CapSense_RAM_WD_SLIDER_STRUCT *ptrRamWdgt;
1639:Generated_Source\PSoC4/CapSense_Processing.c **** 
1640:Generated_Source\PSoC4/CapSense_Processing.c ****     #if (0u != CapSense_POSITION_FILTER_EN)
1641:Generated_Source\PSoC4/CapSense_Processing.c ****         CapSense_SLIDER_POS_HISTORY_STRUCT *ptrHistory;
1642:Generated_Source\PSoC4/CapSense_Processing.c ****     #endif /* #if (0u != CapSense_POSITION_FILTER_EN) */
1643:Generated_Source\PSoC4/CapSense_Processing.c **** 
1644:Generated_Source\PSoC4/CapSense_Processing.c ****     uint32 touchIdx;
1645:Generated_Source\PSoC4/CapSense_Processing.c ****     uint32 touchCnt = 0Lu;
1646:Generated_Source\PSoC4/CapSense_Processing.c ****     uint16 newPos[CapSense_NUM_CENTROIDS];
1647:Generated_Source\PSoC4/CapSense_Processing.c **** 
1648:Generated_Source\PSoC4/CapSense_Processing.c ****     snsCnt = ptrFlashWdgt->totalNumSns;
 391              		.loc 1 1648 0
 392 0012 0B8B     		ldrh	r3, [r1, #24]
 393              	.LVL62:
1649:Generated_Source\PSoC4/CapSense_Processing.c ****     ptrSnsTmp = ptrFlashWdgt->ptr2SnsRam;
 394              		.loc 1 1649 0
 395 0014 8A68     		ldr	r2, [r1, #8]
 396              	.LVL63:
1650:Generated_Source\PSoC4/CapSense_Processing.c ****     ptrRamWdgt = (CapSense_RAM_WD_SLIDER_STRUCT *)ptrFlashWdgt->ptr2WdgtRam;
 397              		.loc 1 1650 0
 398 0016 4F68     		ldr	r7, [r1, #4]
 399              	.LVL64:
1651:Generated_Source\PSoC4/CapSense_Processing.c ****     ptrDebounceCnt = ptrFlashWdgt->ptr2DebounceArr;
 400              		.loc 1 1651 0
 401 0018 0969     		ldr	r1, [r1, #16]
 402              	.LVL65:
 403 001a 8946     		mov	r9, r1
 404              	.LVL66:
1652:Generated_Source\PSoC4/CapSense_Processing.c **** 
1653:Generated_Source\PSoC4/CapSense_Processing.c ****     #if (0u != CapSense_POSITION_FILTER_EN)
1654:Generated_Source\PSoC4/CapSense_Processing.c ****         ptrHistory = ptrFlashWdgt->ptr2PosHistory;
 405              		.loc 1 1654 0
 406 001c 4146     		mov	r1, r8
 407              	.LVL67:
 408 001e 4E6A     		ldr	r6, [r1, #36]
 409              	.LVL68:
1655:Generated_Source\PSoC4/CapSense_Processing.c ****     #endif /* #if (0u != CapSense_POSITION_FILTER_EN) */
1656:Generated_Source\PSoC4/CapSense_Processing.c **** 
1657:Generated_Source\PSoC4/CapSense_Processing.c ****     /* Calculate touch threshold based on current slider state */
1658:Generated_Source\PSoC4/CapSense_Processing.c ****     touchTh = (0Lu == currStatus ) ?
1659:Generated_Source\PSoC4/CapSense_Processing.c ****               ((uint32)ptrRamWdgt->fingerTh + ptrRamWdgt->hysteresis) :
 410              		.loc 1 1659 0
 411 0020 0028     		cmp	r0, #0
 412 0022 03D1     		bne	.L24
 413              		.loc 1 1659 0 is_stmt 0 discriminator 1
 414 0024 7888     		ldrh	r0, [r7, #2]
 415              	.LVL69:
 416 0026 B979     		ldrb	r1, [r7, #6]
 417 0028 4018     		adds	r0, r0, r1
ARM GAS  C:\Users\JANUSD~1\AppData\Local\Temp\ccK195Su.s 			page 38


 418 002a 02E0     		b	.L25
 419              	.LVL70:
 420              	.L24:
1660:Generated_Source\PSoC4/CapSense_Processing.c ****               ((uint32)ptrRamWdgt->fingerTh - ptrRamWdgt->hysteresis);
 421              		.loc 1 1660 0 is_stmt 1 discriminator 2
 422 002c 7988     		ldrh	r1, [r7, #2]
 423              	.LVL71:
 424 002e B879     		ldrb	r0, [r7, #6]
 425              	.LVL72:
1659:Generated_Source\PSoC4/CapSense_Processing.c ****               ((uint32)ptrRamWdgt->fingerTh - ptrRamWdgt->hysteresis);
 426              		.loc 1 1659 0 discriminator 2
 427 0030 081A     		subs	r0, r1, r0
 428              	.L25:
 429              	.LVL73:
1635:Generated_Source\PSoC4/CapSense_Processing.c ****     uint8 * ptrDebounceCnt;
 430              		.loc 1 1635 0
 431 0032 0025     		movs	r5, #0
1661:Generated_Source\PSoC4/CapSense_Processing.c **** 
1662:Generated_Source\PSoC4/CapSense_Processing.c ****     /* Go through all widget's sensors */
1663:Generated_Source\PSoC4/CapSense_Processing.c ****     snsMask = 1Lu;
 432              		.loc 1 1663 0
 433 0034 0121     		movs	r1, #1
1664:Generated_Source\PSoC4/CapSense_Processing.c ****     for (; snsCnt-- > 0Lu; )
 434              		.loc 1 1664 0
 435 0036 09E0     		b	.L26
 436              	.LVL74:
 437              	.L28:
1665:Generated_Source\PSoC4/CapSense_Processing.c ****     {
1666:Generated_Source\PSoC4/CapSense_Processing.c ****         /* Determine new potential sensor state */
1667:Generated_Source\PSoC4/CapSense_Processing.c ****         newStatus |= (ptrSnsTmp->diff > touchTh) ? snsMask : 0Lu;
 438              		.loc 1 1667 0
 439 0038 D388     		ldrh	r3, [r2, #6]
 440 003a 9842     		cmp	r0, r3
 441 003c 01D3     		bcc	.L41
 442 003e 0023     		movs	r3, #0
 443 0040 00E0     		b	.L27
 444              	.L41:
 445 0042 0B00     		movs	r3, r1
 446              	.L27:
 447              		.loc 1 1667 0 is_stmt 0 discriminator 4
 448 0044 1D43     		orrs	r5, r3
 449              	.LVL75:
1668:Generated_Source\PSoC4/CapSense_Processing.c ****         ptrSnsTmp++;
 450              		.loc 1 1668 0 is_stmt 1 discriminator 4
 451 0046 0A32     		adds	r2, r2, #10
 452              	.LVL76:
1669:Generated_Source\PSoC4/CapSense_Processing.c **** 
1670:Generated_Source\PSoC4/CapSense_Processing.c ****         snsMask <<= 1u;
 453              		.loc 1 1670 0 discriminator 4
 454 0048 4900     		lsls	r1, r1, #1
 455              	.LVL77:
1664:Generated_Source\PSoC4/CapSense_Processing.c ****     {
 456              		.loc 1 1664 0 discriminator 4
 457 004a 2300     		movs	r3, r4
 458              	.LVL78:
 459              	.L26:
1664:Generated_Source\PSoC4/CapSense_Processing.c ****     {
ARM GAS  C:\Users\JANUSD~1\AppData\Local\Temp\ccK195Su.s 			page 39


 460              		.loc 1 1664 0 is_stmt 0
 461 004c 5C1E     		subs	r4, r3, #1
 462              	.LVL79:
 463 004e 002B     		cmp	r3, #0
 464 0050 F2D1     		bne	.L28
1671:Generated_Source\PSoC4/CapSense_Processing.c ****     }
1672:Generated_Source\PSoC4/CapSense_Processing.c **** 
1673:Generated_Source\PSoC4/CapSense_Processing.c ****     /* If widget is active, check whether debounce is needed */
1674:Generated_Source\PSoC4/CapSense_Processing.c ****     if (0Lu != newStatus)
 465              		.loc 1 1674 0 is_stmt 1
 466 0052 002D     		cmp	r5, #0
 467 0054 0CD0     		beq	.L29
1675:Generated_Source\PSoC4/CapSense_Processing.c ****     {
1676:Generated_Source\PSoC4/CapSense_Processing.c ****         if (0u < (*ptrDebounceCnt))
 468              		.loc 1 1676 0
 469 0056 4B46     		mov	r3, r9
 470 0058 1B78     		ldrb	r3, [r3]
 471 005a 002B     		cmp	r3, #0
 472 005c 02D0     		beq	.L30
1677:Generated_Source\PSoC4/CapSense_Processing.c ****         {
1678:Generated_Source\PSoC4/CapSense_Processing.c ****             /* Decrement debounce counter */
1679:Generated_Source\PSoC4/CapSense_Processing.c ****             (*ptrDebounceCnt)--;
 473              		.loc 1 1679 0
 474 005e 013B     		subs	r3, r3, #1
 475 0060 4A46     		mov	r2, r9
 476              	.LVL80:
 477 0062 1370     		strb	r3, [r2]
 478              	.L30:
1680:Generated_Source\PSoC4/CapSense_Processing.c ****         }
1681:Generated_Source\PSoC4/CapSense_Processing.c **** 
1682:Generated_Source\PSoC4/CapSense_Processing.c ****         if (0u == (*ptrDebounceCnt))
 479              		.loc 1 1682 0
 480 0064 4B46     		mov	r3, r9
 481 0066 1B78     		ldrb	r3, [r3]
 482 0068 002B     		cmp	r3, #0
 483 006a 04D0     		beq	.L31
 484 006c 6546     		mov	r5, ip
 485              	.LVL81:
 486 006e 02E0     		b	.L31
 487              	.LVL82:
 488              	.L29:
1683:Generated_Source\PSoC4/CapSense_Processing.c ****         {
1684:Generated_Source\PSoC4/CapSense_Processing.c ****             /* Update slider sensor state when debounce completes */
1685:Generated_Source\PSoC4/CapSense_Processing.c ****             currStatus = newStatus;
1686:Generated_Source\PSoC4/CapSense_Processing.c ****         }
1687:Generated_Source\PSoC4/CapSense_Processing.c ****     }
1688:Generated_Source\PSoC4/CapSense_Processing.c ****     else
1689:Generated_Source\PSoC4/CapSense_Processing.c ****     {
1690:Generated_Source\PSoC4/CapSense_Processing.c ****         /* Reset debounce counter */
1691:Generated_Source\PSoC4/CapSense_Processing.c ****         *ptrDebounceCnt = ptrRamWdgt->onDebounce;
 489              		.loc 1 1691 0
 490 0070 FB79     		ldrb	r3, [r7, #7]
 491 0072 4A46     		mov	r2, r9
 492              	.LVL83:
 493 0074 1370     		strb	r3, [r2]
 494              	.LVL84:
 495              	.L31:
ARM GAS  C:\Users\JANUSD~1\AppData\Local\Temp\ccK195Su.s 			page 40


1692:Generated_Source\PSoC4/CapSense_Processing.c **** 
1693:Generated_Source\PSoC4/CapSense_Processing.c ****         /* Clear slider sensor state */
1694:Generated_Source\PSoC4/CapSense_Processing.c ****         currStatus = 0Lu;
1695:Generated_Source\PSoC4/CapSense_Processing.c ****     }
1696:Generated_Source\PSoC4/CapSense_Processing.c **** 
1697:Generated_Source\PSoC4/CapSense_Processing.c ****     /* Centroid processing */
1698:Generated_Source\PSoC4/CapSense_Processing.c ****     /* If there are active sensors after debounce run the centroid algorithm */
1699:Generated_Source\PSoC4/CapSense_Processing.c ****     if (0u != currStatus)
 496              		.loc 1 1699 0
 497 0076 002D     		cmp	r5, #0
 498 0078 56D0     		beq	.L42
1700:Generated_Source\PSoC4/CapSense_Processing.c ****     {
1701:Generated_Source\PSoC4/CapSense_Processing.c ****         /* Centroid always uses the lowest finger threshold (minus hysteresis)
1702:Generated_Source\PSoC4/CapSense_Processing.c ****          * to produce same results for first and all consecutive invocations */
1703:Generated_Source\PSoC4/CapSense_Processing.c ****         touchTh = (uint32)ptrRamWdgt->fingerTh - ptrRamWdgt->hysteresis;
 499              		.loc 1 1703 0
 500 007a 7B88     		ldrh	r3, [r7, #2]
 501 007c BA79     		ldrb	r2, [r7, #6]
 502 007e 9A1A     		subs	r2, r3, r2
 503              	.LVL85:
1704:Generated_Source\PSoC4/CapSense_Processing.c ****         snsCnt = ptrFlashWdgt->totalNumSns;
 504              		.loc 1 1704 0
 505 0080 4346     		mov	r3, r8
 506 0082 1B8B     		ldrh	r3, [r3, #24]
 507 0084 9946     		mov	r9, r3
 508              	.LVL86:
1705:Generated_Source\PSoC4/CapSense_Processing.c **** 
1706:Generated_Source\PSoC4/CapSense_Processing.c ****         #if (0u != CapSense_TOTAL_DIPLEXED_SLIDERS)
1707:Generated_Source\PSoC4/CapSense_Processing.c ****             if ((0u != (ptrFlashWdgt->staticConfig & CapSense_DIPLEXING_MASK)))
1708:Generated_Source\PSoC4/CapSense_Processing.c ****             {
1709:Generated_Source\PSoC4/CapSense_Processing.c ****                 /* Run local maximum search for duplexed slider */
1710:Generated_Source\PSoC4/CapSense_Processing.c ****                 touchCnt = CapSense_DpFindLocalMaxDiplex(
1711:Generated_Source\PSoC4/CapSense_Processing.c ****                                 ptrFlashWdgt->ptr2SnsRam, snsCnt, ptrFlashWdgt->ptr2DiplexTable, to
1712:Generated_Source\PSoC4/CapSense_Processing.c **** 
1713:Generated_Source\PSoC4/CapSense_Processing.c ****                 /* Centroid calculation API requires double sensor count for the diplexed sliders. 
1714:Generated_Source\PSoC4/CapSense_Processing.c ****                 snsCnt *= 2u;
1715:Generated_Source\PSoC4/CapSense_Processing.c ****             }
1716:Generated_Source\PSoC4/CapSense_Processing.c ****             else
1717:Generated_Source\PSoC4/CapSense_Processing.c ****             {
1718:Generated_Source\PSoC4/CapSense_Processing.c ****                 /* Run local maximum search for NON-duplexed slider */
1719:Generated_Source\PSoC4/CapSense_Processing.c ****                 #if (CapSense_ENABLE == CapSense_4PTS_LOCAL_MAX_EN)
1720:Generated_Source\PSoC4/CapSense_Processing.c ****                     touchCnt = CapSense_DpFindLocalMaxSd4pts(ptrFlashWdgt, ptrFlashWdgt->ptr2SnsRam
1721:Generated_Source\PSoC4/CapSense_Processing.c ****                 #else
1722:Generated_Source\PSoC4/CapSense_Processing.c ****                     touchCnt = CapSense_DpFindLocalMaxSd(ptrFlashWdgt->ptr2SnsRam, snsCnt, touchTh)
1723:Generated_Source\PSoC4/CapSense_Processing.c ****                 #endif
1724:Generated_Source\PSoC4/CapSense_Processing.c ****             }
1725:Generated_Source\PSoC4/CapSense_Processing.c ****         #else
1726:Generated_Source\PSoC4/CapSense_Processing.c ****             /* Run local maximum search for NON-duplexed slider */
1727:Generated_Source\PSoC4/CapSense_Processing.c ****             #if (CapSense_ENABLE == CapSense_4PTS_LOCAL_MAX_EN)
1728:Generated_Source\PSoC4/CapSense_Processing.c ****                 touchCnt = CapSense_DpFindLocalMaxSd4pts(ptrFlashWdgt, ptrFlashWdgt->ptr2SnsRam, sn
1729:Generated_Source\PSoC4/CapSense_Processing.c ****             #else
1730:Generated_Source\PSoC4/CapSense_Processing.c ****                 touchCnt = CapSense_DpFindLocalMaxSd(ptrFlashWdgt->ptr2SnsRam, snsCnt, touchTh);
 509              		.loc 1 1730 0
 510 0086 1900     		movs	r1, r3
 511              	.LVL87:
 512 0088 4346     		mov	r3, r8
 513              	.LVL88:
ARM GAS  C:\Users\JANUSD~1\AppData\Local\Temp\ccK195Su.s 			page 41


 514 008a 9868     		ldr	r0, [r3, #8]
 515 008c FFF7FEFF 		bl	CapSense_DpFindLocalMaxSd
 516              	.LVL89:
 517 0090 041E     		subs	r4, r0, #0
 518              	.LVL90:
1731:Generated_Source\PSoC4/CapSense_Processing.c ****             #endif
1732:Generated_Source\PSoC4/CapSense_Processing.c ****         #endif /* #if (0u != CapSense_TOTAL_DIPLEXED_SLIDERS) */
1733:Generated_Source\PSoC4/CapSense_Processing.c **** 
1734:Generated_Source\PSoC4/CapSense_Processing.c ****         /* If at least one touch is detected */
1735:Generated_Source\PSoC4/CapSense_Processing.c ****         if (0u != touchCnt)
 519              		.loc 1 1735 0
 520 0092 59D0     		beq	.L38
1736:Generated_Source\PSoC4/CapSense_Processing.c ****         {
1737:Generated_Source\PSoC4/CapSense_Processing.c ****             /* Determine slider type and calculate new position(s) */
1738:Generated_Source\PSoC4/CapSense_Processing.c ****             #if (0u != CapSense_TOTAL_LINEAR_SLIDERS)
1739:Generated_Source\PSoC4/CapSense_Processing.c ****                 if ((CapSense_WD_TYPE_ENUM)ptrFlashWdgt->wdgtType == CapSense_WD_LINEAR_SLIDER_E)
 521              		.loc 1 1739 0
 522 0094 4346     		mov	r3, r8
 523 0096 9B7E     		ldrb	r3, [r3, #26]
 524 0098 022B     		cmp	r3, #2
 525 009a 55D1     		bne	.L38
1740:Generated_Source\PSoC4/CapSense_Processing.c ****                 {
1741:Generated_Source\PSoC4/CapSense_Processing.c ****                     #if (CapSense_ENABLE == CapSense_SLIDER_MULT_METHOD)
1742:Generated_Source\PSoC4/CapSense_Processing.c ****                         touchCnt = CapSense_DpCalcLinearCentroid(newPos, (uint32)ptrFlashWdgt->xCen
1743:Generated_Source\PSoC4/CapSense_Processing.c ****                                     snsCnt, (uint32)(ptrFlashWdgt->xCentroidMultiplier >> 1));
1744:Generated_Source\PSoC4/CapSense_Processing.c ****                     #else
1745:Generated_Source\PSoC4/CapSense_Processing.c ****                         touchCnt = CapSense_DpCalcLinearCentroid(
 526              		.loc 1 1745 0
 527 009c 0023     		movs	r3, #0
 528 009e 4A46     		mov	r2, r9
 529 00a0 4146     		mov	r1, r8
 530 00a2 096A     		ldr	r1, [r1, #32]
 531 00a4 03A8     		add	r0, sp, #12
 532              	.LVL91:
 533 00a6 FFF7FEFF 		bl	CapSense_DpCalcLinearCentroid
 534              	.LVL92:
 535 00aa 0400     		movs	r4, r0
 536              	.LVL93:
 537              	.LBB8:
 538              	.LBB9:
1746:Generated_Source\PSoC4/CapSense_Processing.c ****                                         newPos, (uint32)ptrFlashWdgt->xCentroidMultiplier, snsCnt, 
1747:Generated_Source\PSoC4/CapSense_Processing.c ****                     #endif
1748:Generated_Source\PSoC4/CapSense_Processing.c ****                     DpUpdateLinSlider(newPos, touchCnt, ptrFlashWdgt, ptrRamWdgt);
1749:Generated_Source\PSoC4/CapSense_Processing.c ****                 }
1750:Generated_Source\PSoC4/CapSense_Processing.c ****             #endif /* #if (0u != CapSense_TOTAL_LINEAR_SLIDERS) */
1751:Generated_Source\PSoC4/CapSense_Processing.c **** 
1752:Generated_Source\PSoC4/CapSense_Processing.c ****             #if (0u != CapSense_TOTAL_RADIAL_SLIDERS)
1753:Generated_Source\PSoC4/CapSense_Processing.c ****                 if ((CapSense_WD_TYPE_ENUM)ptrFlashWdgt->wdgtType == CapSense_WD_RADIAL_SLIDER_E)
1754:Generated_Source\PSoC4/CapSense_Processing.c ****                 {
1755:Generated_Source\PSoC4/CapSense_Processing.c ****                     touchCnt = CapSense_DpCalcRadialCentroid(
1756:Generated_Source\PSoC4/CapSense_Processing.c ****                                     newPos, (uint32)ptrFlashWdgt->xCentroidMultiplier, snsCnt);
1757:Generated_Source\PSoC4/CapSense_Processing.c ****                     DpUpdateRadSlider(newPos, touchCnt, ptrFlashWdgt, ptrRamWdgt);
1758:Generated_Source\PSoC4/CapSense_Processing.c ****                 }
1759:Generated_Source\PSoC4/CapSense_Processing.c ****             #endif /* #if (0u != CapSense_TOTAL_RADIAL_SLIDERS) */
1760:Generated_Source\PSoC4/CapSense_Processing.c ****         }
1761:Generated_Source\PSoC4/CapSense_Processing.c ****     }
1762:Generated_Source\PSoC4/CapSense_Processing.c **** 
ARM GAS  C:\Users\JANUSD~1\AppData\Local\Temp\ccK195Su.s 			page 42


1763:Generated_Source\PSoC4/CapSense_Processing.c ****     /* Clear not active position data slots */
1764:Generated_Source\PSoC4/CapSense_Processing.c ****     for (touchIdx = touchCnt; touchIdx < CapSense_NUM_CENTROIDS; touchIdx++)
1765:Generated_Source\PSoC4/CapSense_Processing.c ****     {
1766:Generated_Source\PSoC4/CapSense_Processing.c ****         ptrRamWdgt->position[touchIdx] = CapSense_SLIDER_POS_NONE;
1767:Generated_Source\PSoC4/CapSense_Processing.c **** 
1768:Generated_Source\PSoC4/CapSense_Processing.c ****         #if (0u != CapSense_POSITION_FILTER_EN)
1769:Generated_Source\PSoC4/CapSense_Processing.c ****             if (NULL != ptrHistory)
1770:Generated_Source\PSoC4/CapSense_Processing.c ****             {
1771:Generated_Source\PSoC4/CapSense_Processing.c ****                 CapSense_InitPosFiltersSd(&ptrHistory[touchIdx], CapSense_SLIDER_POS_NONE);
1772:Generated_Source\PSoC4/CapSense_Processing.c ****             }
1773:Generated_Source\PSoC4/CapSense_Processing.c ****         #endif /* #if (0u != CapSense_POSITION_FILTER_EN) */
1774:Generated_Source\PSoC4/CapSense_Processing.c ****     }
1775:Generated_Source\PSoC4/CapSense_Processing.c **** 
1776:Generated_Source\PSoC4/CapSense_Processing.c ****     return currStatus;
1777:Generated_Source\PSoC4/CapSense_Processing.c **** }
1778:Generated_Source\PSoC4/CapSense_Processing.c **** #endif /* #if (0u != CapSense_SLIDER_WIDGET_EN) */
1779:Generated_Source\PSoC4/CapSense_Processing.c **** 
1780:Generated_Source\PSoC4/CapSense_Processing.c **** #if (0u != CapSense_TOTAL_LINEAR_SLIDERS)
1781:Generated_Source\PSoC4/CapSense_Processing.c **** /*******************************************************************************
1782:Generated_Source\PSoC4/CapSense_Processing.c **** * Function Name: DpUpdateLinSlider
1783:Generated_Source\PSoC4/CapSense_Processing.c **** ****************************************************************************//**
1784:Generated_Source\PSoC4/CapSense_Processing.c **** *
1785:Generated_Source\PSoC4/CapSense_Processing.c **** * \brief
1786:Generated_Source\PSoC4/CapSense_Processing.c **** *   Updates the touch status of the Linear Slider widget.
1787:Generated_Source\PSoC4/CapSense_Processing.c **** *
1788:Generated_Source\PSoC4/CapSense_Processing.c **** * \details
1789:Generated_Source\PSoC4/CapSense_Processing.c **** *   This function updates the position data of the Linear Slider
1790:Generated_Source\PSoC4/CapSense_Processing.c **** *   in the Data Structure. Also, this function runs position filters for the
1791:Generated_Source\PSoC4/CapSense_Processing.c **** *   position data if any enabled.
1792:Generated_Source\PSoC4/CapSense_Processing.c **** *
1793:Generated_Source\PSoC4/CapSense_Processing.c **** * \param newPos       The pointer to the array with the new finger position coordinates.
1794:Generated_Source\PSoC4/CapSense_Processing.c **** * \param numTouches   The number of the coordinates in the newPos array.
1795:Generated_Source\PSoC4/CapSense_Processing.c **** * \param ptrFlashWdgt The pointer to the Flash Widget Object.
1796:Generated_Source\PSoC4/CapSense_Processing.c **** * \param ptrRamWdgt   The pointer to the RAM Widget Object.
1797:Generated_Source\PSoC4/CapSense_Processing.c **** *
1798:Generated_Source\PSoC4/CapSense_Processing.c **** *******************************************************************************/
1799:Generated_Source\PSoC4/CapSense_Processing.c **** static CY_INLINE void DpUpdateLinSlider(
1800:Generated_Source\PSoC4/CapSense_Processing.c ****                         const uint16 newPos[],
1801:Generated_Source\PSoC4/CapSense_Processing.c ****                         uint32 numTouches,
1802:Generated_Source\PSoC4/CapSense_Processing.c ****                         CapSense_FLASH_WD_STRUCT const *ptrFlashWdgt,
1803:Generated_Source\PSoC4/CapSense_Processing.c ****                         CapSense_RAM_WD_SLIDER_STRUCT *ptrRamWdgt)
1804:Generated_Source\PSoC4/CapSense_Processing.c **** {
1805:Generated_Source\PSoC4/CapSense_Processing.c ****     uint32 touchIdx;
1806:Generated_Source\PSoC4/CapSense_Processing.c **** 
1807:Generated_Source\PSoC4/CapSense_Processing.c ****     #if (0u != CapSense_POS_AVERAGE_FILTER_EN)
1808:Generated_Source\PSoC4/CapSense_Processing.c ****         uint16 tempPosition;
1809:Generated_Source\PSoC4/CapSense_Processing.c ****     #endif /* (0u != CapSense_POS_AVERAGE_FILTER_EN) */
1810:Generated_Source\PSoC4/CapSense_Processing.c **** 
1811:Generated_Source\PSoC4/CapSense_Processing.c ****     #if (0u == CapSense_POSITION_FILTER_EN)
1812:Generated_Source\PSoC4/CapSense_Processing.c ****         /* This parameter is unused in such configurations */
1813:Generated_Source\PSoC4/CapSense_Processing.c ****         (void)ptrFlashWdgt;
1814:Generated_Source\PSoC4/CapSense_Processing.c ****     #else
1815:Generated_Source\PSoC4/CapSense_Processing.c ****         uint16 filteredPosition;
1816:Generated_Source\PSoC4/CapSense_Processing.c ****         /* Get bitmask with the enabled filters */
1817:Generated_Source\PSoC4/CapSense_Processing.c ****         uint32 filterConfig = (uint32)ptrFlashWdgt->staticConfig;
 539              		.loc 1 1817 0
 540 00ac 4346     		mov	r3, r8
ARM GAS  C:\Users\JANUSD~1\AppData\Local\Temp\ccK195Su.s 			page 43


 541 00ae 5B69     		ldr	r3, [r3, #20]
 542 00b0 0193     		str	r3, [sp, #4]
 543              	.LVL94:
1818:Generated_Source\PSoC4/CapSense_Processing.c ****         /* Get pointer to the position filter history */
1819:Generated_Source\PSoC4/CapSense_Processing.c ****         CapSense_SLIDER_POS_HISTORY_STRUCT *ptrHistory = ptrFlashWdgt->ptr2PosHistory;
 544              		.loc 1 1819 0
 545 00b2 4346     		mov	r3, r8
 546              	.LVL95:
 547 00b4 5B6A     		ldr	r3, [r3, #36]
 548 00b6 9A46     		mov	r10, r3
 549              	.LVL96:
1820:Generated_Source\PSoC4/CapSense_Processing.c ****     #endif /* #if (0u == CapSense_POSITION_FILTER_EN) */
1821:Generated_Source\PSoC4/CapSense_Processing.c **** 
1822:Generated_Source\PSoC4/CapSense_Processing.c ****     #if (0u != CapSense_POS_ADAPTIVE_IIR_FILTER_EN)
1823:Generated_Source\PSoC4/CapSense_Processing.c ****         ADAPTIVE_FILTER_CONTEXT_STRUCT contextAIIR;
1824:Generated_Source\PSoC4/CapSense_Processing.c ****         uint16 emptyPosition = 0;
1825:Generated_Source\PSoC4/CapSense_Processing.c ****     #endif /* (0u != CapSense_POS_ADAPTIVE_IIR_FILTER_EN) */
1826:Generated_Source\PSoC4/CapSense_Processing.c **** 
1827:Generated_Source\PSoC4/CapSense_Processing.c ****     /* Run Filter and update the position registers with the filtered data */
1828:Generated_Source\PSoC4/CapSense_Processing.c ****     for (touchIdx = 0u; touchIdx < numTouches; touchIdx++)
 550              		.loc 1 1828 0
 551 00b8 0023     		movs	r3, #0
 552              	.LVL97:
 553 00ba 9946     		mov	r9, r3
 554              	.LVL98:
 555 00bc 31E0     		b	.L33
 556              	.LVL99:
 557              	.L37:
1829:Generated_Source\PSoC4/CapSense_Processing.c ****     {
1830:Generated_Source\PSoC4/CapSense_Processing.c ****         #if (0u == CapSense_POSITION_FILTER_EN)
1831:Generated_Source\PSoC4/CapSense_Processing.c ****             /* If filters are not enabled just copy the position data */
1832:Generated_Source\PSoC4/CapSense_Processing.c ****             ptrRamWdgt->position[touchIdx] = newPos[touchIdx];
1833:Generated_Source\PSoC4/CapSense_Processing.c ****         #else
1834:Generated_Source\PSoC4/CapSense_Processing.c ****             filteredPosition = newPos[touchIdx];
 558              		.loc 1 1834 0
 559 00be 4B46     		mov	r3, r9
 560 00c0 5B00     		lsls	r3, r3, #1
 561 00c2 03AA     		add	r2, sp, #12
 562              	.LVL100:
 563 00c4 D35A     		ldrh	r3, [r2, r3]
 564 00c6 9B46     		mov	fp, r3
 565              	.LVL101:
1835:Generated_Source\PSoC4/CapSense_Processing.c **** 
1836:Generated_Source\PSoC4/CapSense_Processing.c ****             /* If there were no touch initialize the current position with new position data */
1837:Generated_Source\PSoC4/CapSense_Processing.c ****             if (ptrRamWdgt->position[touchIdx] == CapSense_SLIDER_POS_NONE)
 566              		.loc 1 1837 0
 567 00c8 4B46     		mov	r3, r9
 568 00ca 0433     		adds	r3, r3, #4
 569 00cc 5B00     		lsls	r3, r3, #1
 570 00ce FB18     		adds	r3, r7, r3
 571 00d0 DA88     		ldrh	r2, [r3, #6]
 572              	.LVL102:
 573 00d2 224B     		ldr	r3, .L43
 574 00d4 9A42     		cmp	r2, r3
 575 00d6 04D1     		bne	.L34
1838:Generated_Source\PSoC4/CapSense_Processing.c ****             {
1839:Generated_Source\PSoC4/CapSense_Processing.c ****                 CapSense_InitPosFiltersSd(ptrHistory, filteredPosition);
ARM GAS  C:\Users\JANUSD~1\AppData\Local\Temp\ccK195Su.s 			page 44


 576              		.loc 1 1839 0
 577 00d8 5946     		mov	r1, fp
 578 00da 5046     		mov	r0, r10
 579 00dc FFF7FEFF 		bl	CapSense_InitPosFiltersSd
 580              	.LVL103:
 581 00e0 10E0     		b	.L35
 582              	.L34:
1840:Generated_Source\PSoC4/CapSense_Processing.c ****             }
1841:Generated_Source\PSoC4/CapSense_Processing.c ****             else
1842:Generated_Source\PSoC4/CapSense_Processing.c ****             {
1843:Generated_Source\PSoC4/CapSense_Processing.c ****                 #if (0u != CapSense_POS_MEDIAN_FILTER_EN)
1844:Generated_Source\PSoC4/CapSense_Processing.c ****                     if (0u != (filterConfig & CapSense_POS_MEDIAN_FILTER_MASK))
1845:Generated_Source\PSoC4/CapSense_Processing.c ****                     {
1846:Generated_Source\PSoC4/CapSense_Processing.c ****                         filteredPosition = (uint16)CapSense_FtMedian((uint32)ptrHistory->posMedianZ
1847:Generated_Source\PSoC4/CapSense_Processing.c ****                                             (uint32)ptrHistory->posMedianZ1, (uint32)newPos[touchId
1848:Generated_Source\PSoC4/CapSense_Processing.c ****                         ptrHistory->posMedianZ2 = ptrHistory->posMedianZ1;
1849:Generated_Source\PSoC4/CapSense_Processing.c ****                         ptrHistory->posMedianZ1 = newPos[touchIdx];
1850:Generated_Source\PSoC4/CapSense_Processing.c ****                     }
1851:Generated_Source\PSoC4/CapSense_Processing.c ****                 #endif /* #if (0u != CapSense_POS_MEDIAN_FILTER_EN) */
1852:Generated_Source\PSoC4/CapSense_Processing.c **** 
1853:Generated_Source\PSoC4/CapSense_Processing.c ****                 #if (0u != CapSense_POS_IIR_FILTER_EN)
1854:Generated_Source\PSoC4/CapSense_Processing.c ****                     if (0u != (filterConfig & CapSense_POS_IIR_FILTER_MASK))
 583              		.loc 1 1854 0
 584 00e2 019B     		ldr	r3, [sp, #4]
 585 00e4 DB06     		lsls	r3, r3, #27
 586 00e6 0DD5     		bpl	.L35
1855:Generated_Source\PSoC4/CapSense_Processing.c ****                     {
1856:Generated_Source\PSoC4/CapSense_Processing.c ****                         filteredPosition = (uint16)CapSense_FtIIR1stOrder((uint32)filteredPosition,
 587              		.loc 1 1856 0
 588 00e8 5346     		mov	r3, r10
 589 00ea 1988     		ldrh	r1, [r3]
1857:Generated_Source\PSoC4/CapSense_Processing.c ****                                             (uint32)ptrFlashWdgt->iirFilterCoeff, 0uL);
 590              		.loc 1 1857 0
 591 00ec 2823     		movs	r3, #40
 592 00ee 4246     		mov	r2, r8
 593 00f0 D25C     		ldrb	r2, [r2, r3]
1856:Generated_Source\PSoC4/CapSense_Processing.c ****                                             (uint32)ptrFlashWdgt->iirFilterCoeff, 0uL);
 594              		.loc 1 1856 0
 595 00f2 0023     		movs	r3, #0
 596 00f4 5846     		mov	r0, fp
 597 00f6 FFF7FEFF 		bl	CapSense_FtIIR1stOrder
 598              	.LVL104:
 599 00fa 83B2     		uxth	r3, r0
 600 00fc 9B46     		mov	fp, r3
 601              	.LVL105:
1858:Generated_Source\PSoC4/CapSense_Processing.c ****                         ptrHistory->posIIR = filteredPosition;
 602              		.loc 1 1858 0
 603 00fe 5346     		mov	r3, r10
 604 0100 5A46     		mov	r2, fp
 605 0102 1A80     		strh	r2, [r3]
 606              	.L35:
1859:Generated_Source\PSoC4/CapSense_Processing.c ****                     }
1860:Generated_Source\PSoC4/CapSense_Processing.c ****                 #endif /* #if (0u != CapSense_POS_IIR_FILTER_EN) */
1861:Generated_Source\PSoC4/CapSense_Processing.c **** 
1862:Generated_Source\PSoC4/CapSense_Processing.c ****                 #if (0u != CapSense_POS_ADAPTIVE_IIR_FILTER_EN)
1863:Generated_Source\PSoC4/CapSense_Processing.c ****                     if (0u != (filterConfig & CapSense_AIIR_FILTER_MASK))
1864:Generated_Source\PSoC4/CapSense_Processing.c ****                     {
ARM GAS  C:\Users\JANUSD~1\AppData\Local\Temp\ccK195Su.s 			page 45


1865:Generated_Source\PSoC4/CapSense_Processing.c ****                         contextAIIR.previousX = ptrHistory->posAIIR;
1866:Generated_Source\PSoC4/CapSense_Processing.c ****                         contextAIIR.previousY = emptyPosition;
1867:Generated_Source\PSoC4/CapSense_Processing.c ****                         contextAIIR.coefficient = ptrHistory->posAIIRCoeff;
1868:Generated_Source\PSoC4/CapSense_Processing.c ****                         AdaptiveFilter_Run(&ptrRamWdgt->aiirConfig, &contextAIIR, &filteredPosition
1869:Generated_Source\PSoC4/CapSense_Processing.c ****                         ptrHistory->posAIIR = contextAIIR.previousX;
1870:Generated_Source\PSoC4/CapSense_Processing.c ****                         ptrHistory->posAIIRCoeff = contextAIIR.coefficient;
1871:Generated_Source\PSoC4/CapSense_Processing.c ****                     }
1872:Generated_Source\PSoC4/CapSense_Processing.c ****                 #endif /* (0u != CapSense_POS_ADAPTIVE_IIR_FILTER_EN) */
1873:Generated_Source\PSoC4/CapSense_Processing.c **** 
1874:Generated_Source\PSoC4/CapSense_Processing.c ****                 #if (0u != CapSense_POS_AVERAGE_FILTER_EN)
1875:Generated_Source\PSoC4/CapSense_Processing.c ****                     if (0u != (filterConfig & CapSense_POS_AVERAGE_FILTER_MASK))
1876:Generated_Source\PSoC4/CapSense_Processing.c ****                     {
1877:Generated_Source\PSoC4/CapSense_Processing.c ****                         tempPosition = filteredPosition;
1878:Generated_Source\PSoC4/CapSense_Processing.c ****                         filteredPosition = (uint16)(filteredPosition + ptrHistory->posAverage) >> 1
1879:Generated_Source\PSoC4/CapSense_Processing.c ****                         ptrHistory->posAverage = tempPosition;
1880:Generated_Source\PSoC4/CapSense_Processing.c ****                     }
1881:Generated_Source\PSoC4/CapSense_Processing.c ****                 #endif /* #if (0u != CapSense_POS_AVERAGE_FILTER_EN) */
1882:Generated_Source\PSoC4/CapSense_Processing.c **** 
1883:Generated_Source\PSoC4/CapSense_Processing.c ****                 #if (0u != CapSense_POS_JITTER_FILTER_EN)
1884:Generated_Source\PSoC4/CapSense_Processing.c ****                     if (0u != (filterConfig & CapSense_POS_JITTER_FILTER_MASK))
1885:Generated_Source\PSoC4/CapSense_Processing.c ****                     {
1886:Generated_Source\PSoC4/CapSense_Processing.c ****                         filteredPosition = (uint16)CapSense_FtJitter((uint32)filteredPosition, (uin
1887:Generated_Source\PSoC4/CapSense_Processing.c ****                         ptrHistory->posJitter = filteredPosition;
1888:Generated_Source\PSoC4/CapSense_Processing.c ****                     }
1889:Generated_Source\PSoC4/CapSense_Processing.c ****                 #endif /* #if (0u != CapSense_POS_JITTER_FILTER_EN) */
1890:Generated_Source\PSoC4/CapSense_Processing.c ****             }
1891:Generated_Source\PSoC4/CapSense_Processing.c **** 
1892:Generated_Source\PSoC4/CapSense_Processing.c ****             /* Update position data */
1893:Generated_Source\PSoC4/CapSense_Processing.c ****             ptrRamWdgt->position[touchIdx] = filteredPosition;
 607              		.loc 1 1893 0
 608 0104 4B46     		mov	r3, r9
 609 0106 0433     		adds	r3, r3, #4
 610 0108 5B00     		lsls	r3, r3, #1
 611 010a FB18     		adds	r3, r7, r3
 612 010c 5A46     		mov	r2, fp
 613 010e DA80     		strh	r2, [r3, #6]
1894:Generated_Source\PSoC4/CapSense_Processing.c **** 
1895:Generated_Source\PSoC4/CapSense_Processing.c ****             ptrHistory = (NULL != ptrHistory) ? (ptrHistory + 1) : NULL;
 614              		.loc 1 1895 0
 615 0110 5346     		mov	r3, r10
 616 0112 002B     		cmp	r3, #0
 617 0114 02D0     		beq	.L36
 618              	.LVL106:
 619 0116 0223     		movs	r3, #2
 620              	.LVL107:
 621 0118 9C46     		mov	ip, r3
 622 011a E244     		add	r10, r10, ip
 623              	.LVL108:
 624              	.L36:
1828:Generated_Source\PSoC4/CapSense_Processing.c ****     {
 625              		.loc 1 1828 0
 626 011c 0123     		movs	r3, #1
 627 011e 9C46     		mov	ip, r3
 628 0120 E144     		add	r9, r9, ip
 629              	.LVL109:
 630              	.L33:
 631 0122 4C45     		cmp	r4, r9
ARM GAS  C:\Users\JANUSD~1\AppData\Local\Temp\ccK195Su.s 			page 46


 632 0124 CBD8     		bhi	.L37
 633 0126 0FE0     		b	.L38
 634              	.LVL110:
 635              	.L42:
 636              	.LBE9:
 637              	.LBE8:
1645:Generated_Source\PSoC4/CapSense_Processing.c ****     uint16 newPos[CapSense_NUM_CENTROIDS];
 638              		.loc 1 1645 0
 639 0128 0024     		movs	r4, #0
 640              	.LVL111:
 641 012a 0DE0     		b	.L38
 642              	.LVL112:
 643              	.L40:
1766:Generated_Source\PSoC4/CapSense_Processing.c **** 
 644              		.loc 1 1766 0
 645 012c 231D     		adds	r3, r4, #4
 646 012e 5B00     		lsls	r3, r3, #1
 647 0130 FB18     		adds	r3, r7, r3
 648 0132 0122     		movs	r2, #1
 649 0134 5242     		rsbs	r2, r2, #0
 650 0136 DA80     		strh	r2, [r3, #6]
1769:Generated_Source\PSoC4/CapSense_Processing.c ****             {
 651              		.loc 1 1769 0
 652 0138 002E     		cmp	r6, #0
 653 013a 04D0     		beq	.L39
1771:Generated_Source\PSoC4/CapSense_Processing.c ****             }
 654              		.loc 1 1771 0
 655 013c 6000     		lsls	r0, r4, #1
 656 013e 3018     		adds	r0, r6, r0
 657 0140 0649     		ldr	r1, .L43
 658 0142 FFF7FEFF 		bl	CapSense_InitPosFiltersSd
 659              	.LVL113:
 660              	.L39:
1764:Generated_Source\PSoC4/CapSense_Processing.c ****     {
 661              		.loc 1 1764 0 discriminator 2
 662 0146 0134     		adds	r4, r4, #1
 663              	.LVL114:
 664              	.L38:
1764:Generated_Source\PSoC4/CapSense_Processing.c ****     {
 665              		.loc 1 1764 0 is_stmt 0 discriminator 1
 666 0148 002C     		cmp	r4, #0
 667 014a EFD0     		beq	.L40
1777:Generated_Source\PSoC4/CapSense_Processing.c **** #endif /* #if (0u != CapSense_SLIDER_WIDGET_EN) */
 668              		.loc 1 1777 0 is_stmt 1
 669 014c 2800     		movs	r0, r5
 670 014e 05B0     		add	sp, sp, #20
 671              		@ sp needed
 672              	.LVL115:
 673              	.LVL116:
 674              	.LVL117:
 675              	.LVL118:
 676              	.LVL119:
 677 0150 3CBC     		pop	{r2, r3, r4, r5}
 678 0152 9046     		mov	r8, r2
 679 0154 9946     		mov	r9, r3
 680 0156 A246     		mov	r10, r4
 681 0158 AB46     		mov	fp, r5
ARM GAS  C:\Users\JANUSD~1\AppData\Local\Temp\ccK195Su.s 			page 47


 682 015a F0BD     		pop	{r4, r5, r6, r7, pc}
 683              	.L44:
 684              		.align	2
 685              	.L43:
 686 015c FFFF0000 		.word	65535
 687              		.cfi_endproc
 688              	.LFE8:
 689              		.size	CapSense_DpProcessSlider, .-CapSense_DpProcessSlider
 690              		.section	.text.CapSense_DpProcessCsdWidgetStatus,"ax",%progbits
 691              		.align	2
 692              		.global	CapSense_DpProcessCsdWidgetStatus
 693              		.code	16
 694              		.thumb_func
 695              		.type	CapSense_DpProcessCsdWidgetStatus, %function
 696              	CapSense_DpProcessCsdWidgetStatus:
 697              	.LFB6:
1218:Generated_Source\PSoC4/CapSense_Processing.c ****     uint32 sensorStatus;
 698              		.loc 1 1218 0
 699              		.cfi_startproc
 700              		@ args = 0, pretend = 0, frame = 0
 701              		@ frame_needed = 0, uses_anonymous_args = 0
 702              	.LVL120:
 703 0000 70B5     		push	{r4, r5, r6, lr}
 704              		.cfi_def_cfa_offset 16
 705              		.cfi_offset 4, -16
 706              		.cfi_offset 5, -12
 707              		.cfi_offset 6, -8
 708              		.cfi_offset 14, -4
 709 0002 0400     		movs	r4, r0
1224:Generated_Source\PSoC4/CapSense_Processing.c ****     sensorStatus = CapSense_dsRam.snsStatus[widgetId];
 710              		.loc 1 1224 0
 711 0004 8B7E     		ldrb	r3, [r1, #26]
 712              	.LVL121:
1225:Generated_Source\PSoC4/CapSense_Processing.c **** 
 713              		.loc 1 1225 0
 714 0006 144A     		ldr	r2, .L51
 715 0008 1218     		adds	r2, r2, r0
 716 000a 157E     		ldrb	r5, [r2, #24]
 717              	.LVL122:
1227:Generated_Source\PSoC4/CapSense_Processing.c ****     {
 718              		.loc 1 1227 0
 719 000c 023B     		subs	r3, r3, #2
 720              	.LVL123:
 721 000e DBB2     		uxtb	r3, r3
 722              	.LVL124:
 723 0010 012B     		cmp	r3, #1
 724 0012 04D8     		bhi	.L46
1238:Generated_Source\PSoC4/CapSense_Processing.c ****             break;
 725              		.loc 1 1238 0
 726 0014 2800     		movs	r0, r5
 727              	.LVL125:
 728 0016 FFF7FEFF 		bl	CapSense_DpProcessSlider
 729              	.LVL126:
 730 001a 0500     		movs	r5, r0
 731              	.LVL127:
1239:Generated_Source\PSoC4/CapSense_Processing.c ****     #endif /* #if (0u != CapSense_SLIDER_WIDGET_EN) */
 732              		.loc 1 1239 0
ARM GAS  C:\Users\JANUSD~1\AppData\Local\Temp\ccK195Su.s 			page 48


 733 001c 02E0     		b	.L48
 734              	.LVL128:
 735              	.L46:
1264:Generated_Source\PSoC4/CapSense_Processing.c ****         break;
 736              		.loc 1 1264 0 discriminator 1
 737 001e 0020     		movs	r0, #0
 738              	.LVL129:
 739 0020 FFF7FEFF 		bl	CyHalt
 740              	.LVL130:
 741              	.L48:
1268:Generated_Source\PSoC4/CapSense_Processing.c **** 
 742              		.loc 1 1268 0
 743 0024 0C4B     		ldr	r3, .L51
 744 0026 1B19     		adds	r3, r3, r4
 745 0028 1D76     		strb	r5, [r3, #24]
1271:Generated_Source\PSoC4/CapSense_Processing.c ****     wdStatusMask = CapSense_GET_WDGT_STATUS_MASK(widgetId);
 746              		.loc 1 1271 0
 747 002a 6309     		lsrs	r3, r4, #5
 748              	.LVL131:
1272:Generated_Source\PSoC4/CapSense_Processing.c **** 
 749              		.loc 1 1272 0
 750 002c 1F22     		movs	r2, #31
 751 002e 1440     		ands	r4, r2
 752              	.LVL132:
 753 0030 1E3A     		subs	r2, r2, #30
 754 0032 A240     		lsls	r2, r2, r4
 755              	.LVL133:
1275:Generated_Source\PSoC4/CapSense_Processing.c ****     {
 756              		.loc 1 1275 0
 757 0034 002D     		cmp	r5, #0
 758 0036 07D1     		bne	.L49
1277:Generated_Source\PSoC4/CapSense_Processing.c ****     }
 759              		.loc 1 1277 0
 760 0038 0433     		adds	r3, r3, #4
 761              	.LVL134:
 762 003a 9B00     		lsls	r3, r3, #2
 763              	.LVL135:
 764 003c 0649     		ldr	r1, .L51
 765 003e CB18     		adds	r3, r1, r3
 766 0040 5968     		ldr	r1, [r3, #4]
 767 0042 9143     		bics	r1, r2
 768 0044 5960     		str	r1, [r3, #4]
 769 0046 06E0     		b	.L45
 770              	.LVL136:
 771              	.L49:
1281:Generated_Source\PSoC4/CapSense_Processing.c ****     }
 772              		.loc 1 1281 0
 773 0048 0433     		adds	r3, r3, #4
 774              	.LVL137:
 775 004a 9B00     		lsls	r3, r3, #2
 776              	.LVL138:
 777 004c 0249     		ldr	r1, .L51
 778 004e CB18     		adds	r3, r1, r3
 779 0050 5968     		ldr	r1, [r3, #4]
 780 0052 0A43     		orrs	r2, r1
 781              	.LVL139:
 782 0054 5A60     		str	r2, [r3, #4]
ARM GAS  C:\Users\JANUSD~1\AppData\Local\Temp\ccK195Su.s 			page 49


 783              	.L45:
1283:Generated_Source\PSoC4/CapSense_Processing.c **** #endif /* #if (0u != CapSense_TOTAL_CSD_WIDGETS) */
 784              		.loc 1 1283 0
 785              		@ sp needed
 786              	.LVL140:
 787              	.LVL141:
 788 0056 70BD     		pop	{r4, r5, r6, pc}
 789              	.L52:
 790              		.align	2
 791              	.L51:
 792 0058 00000000 		.word	CapSense_dsRam
 793              		.cfi_endproc
 794              	.LFE6:
 795              		.size	CapSense_DpProcessCsdWidgetStatus, .-CapSense_DpProcessCsdWidgetStatus
 796              		.text
 797              	.Letext0:
 798              		.file 2 "Generated_Source\\PSoC4\\cytypes.h"
 799              		.file 3 "Generated_Source\\PSoC4\\CapSense_Configuration.h"
 800              		.file 4 "Generated_Source\\PSoC4\\CapSense_Structure.h"
 801              		.file 5 "Generated_Source\\PSoC4\\CapSense_Centroid_LL.h"
 802              		.file 6 "Generated_Source\\PSoC4\\CapSense_Filter.h"
 803              		.file 7 "Generated_Source\\PSoC4\\CyLib.h"