ARM GAS  C:\Users\JANUSD~1\AppData\Local\Temp\ccsiXrMH.s 			page 1


   1              		.syntax unified
   2              		.cpu cortex-m0
   3              		.fpu softvfp
   4              		.eabi_attribute 20, 1
   5              		.eabi_attribute 21, 1
   6              		.eabi_attribute 23, 3
   7              		.eabi_attribute 24, 1
   8              		.eabi_attribute 25, 1
   9              		.eabi_attribute 26, 1
  10              		.eabi_attribute 30, 1
  11              		.eabi_attribute 34, 0
  12              		.eabi_attribute 18, 4
  13              		.thumb
  14              		.syntax unified
  15              		.file	"CapSense_Structure.c"
  16              		.text
  17              	.Ltext0:
  18              		.cfi_sections	.debug_frame
  19              		.section	.text.DsParseParamId,"ax",%progbits
  20              		.align	2
  21              		.code	16
  22              		.thumb_func
  23              		.type	DsParseParamId, %function
  24              	DsParseParamId:
  25              	.LFB3:
  26              		.file 1 "Generated_Source\\PSoC4\\CapSense_Structure.c"
   1:Generated_Source\PSoC4/CapSense_Structure.c **** /***************************************************************************//**
   2:Generated_Source\PSoC4/CapSense_Structure.c **** * \file CapSense_Structure.c
   3:Generated_Source\PSoC4/CapSense_Structure.c **** * \version 5.0
   4:Generated_Source\PSoC4/CapSense_Structure.c **** *
   5:Generated_Source\PSoC4/CapSense_Structure.c **** * \brief
   6:Generated_Source\PSoC4/CapSense_Structure.c **** *   This file defines the data structure global variables and provides implementation
   7:Generated_Source\PSoC4/CapSense_Structure.c **** *   for the high-level and low-level APIs of the Data Structure module.
   8:Generated_Source\PSoC4/CapSense_Structure.c **** *
   9:Generated_Source\PSoC4/CapSense_Structure.c **** * \see CapSense v5.0 Datasheet
  10:Generated_Source\PSoC4/CapSense_Structure.c **** *
  11:Generated_Source\PSoC4/CapSense_Structure.c **** *//*****************************************************************************
  12:Generated_Source\PSoC4/CapSense_Structure.c **** * Copyright (2016-2017), Cypress Semiconductor Corporation.
  13:Generated_Source\PSoC4/CapSense_Structure.c **** ********************************************************************************
  14:Generated_Source\PSoC4/CapSense_Structure.c **** * This software is owned by Cypress Semiconductor Corporation (Cypress) and is
  15:Generated_Source\PSoC4/CapSense_Structure.c **** * protected by and subject to worldwide patent protection (United States and
  16:Generated_Source\PSoC4/CapSense_Structure.c **** * foreign), United States copyright laws and international treaty provisions.
  17:Generated_Source\PSoC4/CapSense_Structure.c **** * Cypress hereby grants to licensee a personal, non-exclusive, non-transferable
  18:Generated_Source\PSoC4/CapSense_Structure.c **** * license to copy, use, modify, create derivative works of, and compile the
  19:Generated_Source\PSoC4/CapSense_Structure.c **** * Cypress Source Code and derivative works for the sole purpose of creating
  20:Generated_Source\PSoC4/CapSense_Structure.c **** * custom software in support of licensee product to be used only in conjunction
  21:Generated_Source\PSoC4/CapSense_Structure.c **** * with a Cypress integrated circuit as specified in the applicable agreement.
  22:Generated_Source\PSoC4/CapSense_Structure.c **** * Any reproduction, modification, translation, compilation, or representation of
  23:Generated_Source\PSoC4/CapSense_Structure.c **** * this software except as specified above is prohibited without the express
  24:Generated_Source\PSoC4/CapSense_Structure.c **** * written permission of Cypress.
  25:Generated_Source\PSoC4/CapSense_Structure.c **** *
  26:Generated_Source\PSoC4/CapSense_Structure.c **** * Disclaimer: CYPRESS MAKES NO WARRANTY OF ANY KIND, EXPRESS OR IMPLIED, WITH
  27:Generated_Source\PSoC4/CapSense_Structure.c **** * REGARD TO THIS MATERIAL, INCLUDING, BUT NOT LIMITED TO, THE IMPLIED
  28:Generated_Source\PSoC4/CapSense_Structure.c **** * WARRANTIES OF MERCHANTABILITY AND FITNESS FOR A PARTICULAR PURPOSE.
  29:Generated_Source\PSoC4/CapSense_Structure.c **** * Cypress reserves the right to make changes without further notice to the
  30:Generated_Source\PSoC4/CapSense_Structure.c **** * materials described herein. Cypress does not assume any liability arising out
  31:Generated_Source\PSoC4/CapSense_Structure.c **** * of the application or use of any product or circuit described herein. Cypress
ARM GAS  C:\Users\JANUSD~1\AppData\Local\Temp\ccsiXrMH.s 			page 2


  32:Generated_Source\PSoC4/CapSense_Structure.c **** * does not authorize its products for use as critical components in life-support
  33:Generated_Source\PSoC4/CapSense_Structure.c **** * systems where a malfunction or failure may reasonably be expected to result in
  34:Generated_Source\PSoC4/CapSense_Structure.c **** * significant injury to the user. The inclusion of Cypress' product in a life-
  35:Generated_Source\PSoC4/CapSense_Structure.c **** * support systems application implies that the manufacturer assumes all risk of
  36:Generated_Source\PSoC4/CapSense_Structure.c **** * such use and in doing so indemnifies Cypress against all charges. Use may be
  37:Generated_Source\PSoC4/CapSense_Structure.c **** * limited by and subject to the applicable Cypress software license agreement.
  38:Generated_Source\PSoC4/CapSense_Structure.c **** *******************************************************************************/
  39:Generated_Source\PSoC4/CapSense_Structure.c **** 
  40:Generated_Source\PSoC4/CapSense_Structure.c **** #include <cytypes.h>
  41:Generated_Source\PSoC4/CapSense_Structure.c **** #include "CyLib.h"
  42:Generated_Source\PSoC4/CapSense_Structure.c **** #include "CapSense_Structure.h"
  43:Generated_Source\PSoC4/CapSense_Structure.c **** #include "CapSense_Configuration.h"
  44:Generated_Source\PSoC4/CapSense_Structure.c **** 
  45:Generated_Source\PSoC4/CapSense_Structure.c **** #if (0u != CapSense_ADC_EN)
  46:Generated_Source\PSoC4/CapSense_Structure.c ****     #include "CapSense_Adc.h"
  47:Generated_Source\PSoC4/CapSense_Structure.c **** #endif /* (0u != CapSense_ADC_EN) */
  48:Generated_Source\PSoC4/CapSense_Structure.c **** 
  49:Generated_Source\PSoC4/CapSense_Structure.c **** #if (CapSense_ENABLE == CapSense_SELF_TEST_EN)
  50:Generated_Source\PSoC4/CapSense_Structure.c ****     #include "CapSense_SelfTest.h"
  51:Generated_Source\PSoC4/CapSense_Structure.c **** #endif
  52:Generated_Source\PSoC4/CapSense_Structure.c **** 
  53:Generated_Source\PSoC4/CapSense_Structure.c **** #if (CapSense_ENABLE == CapSense_CENTROID_5X5_CSD_EN)
  54:Generated_Source\PSoC4/CapSense_Structure.c ****     #include "CapSense_AdvancedCentroid_LL.h"
  55:Generated_Source\PSoC4/CapSense_Structure.c **** #endif
  56:Generated_Source\PSoC4/CapSense_Structure.c **** 
  57:Generated_Source\PSoC4/CapSense_Structure.c **** #if (CapSense_ENABLE == CapSense_GES_GLOBAL_EN)
  58:Generated_Source\PSoC4/CapSense_Structure.c ****     #include "CapSense_Gesture.h"
  59:Generated_Source\PSoC4/CapSense_Structure.c **** #endif /* (CapSense_ENABLE == CapSense_GES_GLOBAL_EN) */
  60:Generated_Source\PSoC4/CapSense_Structure.c **** 
  61:Generated_Source\PSoC4/CapSense_Structure.c **** /*******************************************************************************
  62:Generated_Source\PSoC4/CapSense_Structure.c **** * Defines the RAM Data Structure variables and their init data in flash
  63:Generated_Source\PSoC4/CapSense_Structure.c **** *******************************************************************************/
  64:Generated_Source\PSoC4/CapSense_Structure.c **** /**
  65:Generated_Source\PSoC4/CapSense_Structure.c **** * \cond SECTION_GLOBAL_VARIABLES
  66:Generated_Source\PSoC4/CapSense_Structure.c **** * \addtogroup group_global_variables
  67:Generated_Source\PSoC4/CapSense_Structure.c **** * \{
  68:Generated_Source\PSoC4/CapSense_Structure.c **** */
  69:Generated_Source\PSoC4/CapSense_Structure.c **** 
  70:Generated_Source\PSoC4/CapSense_Structure.c **** /**
  71:Generated_Source\PSoC4/CapSense_Structure.c **** * The variable that contains the CapSense configuration, settings and
  72:Generated_Source\PSoC4/CapSense_Structure.c **** * scanning results. CapSense_dsRam represents RAM Data Structure.
  73:Generated_Source\PSoC4/CapSense_Structure.c **** */
  74:Generated_Source\PSoC4/CapSense_Structure.c **** CapSense_RAM_STRUCT CapSense_dsRam;
  75:Generated_Source\PSoC4/CapSense_Structure.c **** /** \}
  76:Generated_Source\PSoC4/CapSense_Structure.c **** * \endcond */
  77:Generated_Source\PSoC4/CapSense_Structure.c **** 
  78:Generated_Source\PSoC4/CapSense_Structure.c **** /*******************************************************************************
  79:Generated_Source\PSoC4/CapSense_Structure.c **** * Declares Widget's De-bounce Counters
  80:Generated_Source\PSoC4/CapSense_Structure.c **** *******************************************************************************/
  81:Generated_Source\PSoC4/CapSense_Structure.c **** static uint8 CapSense_debounceLinearSlider0[1u];
  82:Generated_Source\PSoC4/CapSense_Structure.c **** 
  83:Generated_Source\PSoC4/CapSense_Structure.c **** 
  84:Generated_Source\PSoC4/CapSense_Structure.c **** /***************************************************************************//**
  85:Generated_Source\PSoC4/CapSense_Structure.c **** * Centroid positions history
  86:Generated_Source\PSoC4/CapSense_Structure.c **** *******************************************************************************/
  87:Generated_Source\PSoC4/CapSense_Structure.c **** static CapSense_SLIDER_POS_HISTORY_STRUCT CapSense_posHistoryLinearSlider0[CapSense_NUM_CENTROIDS];
  88:Generated_Source\PSoC4/CapSense_Structure.c **** 
ARM GAS  C:\Users\JANUSD~1\AppData\Local\Temp\ccsiXrMH.s 			page 3


  89:Generated_Source\PSoC4/CapSense_Structure.c **** /*******************************************************************************
  90:Generated_Source\PSoC4/CapSense_Structure.c **** * Defines and initializes the Flash Data Structure
  91:Generated_Source\PSoC4/CapSense_Structure.c **** *******************************************************************************/
  92:Generated_Source\PSoC4/CapSense_Structure.c **** 
  93:Generated_Source\PSoC4/CapSense_Structure.c **** 
  94:Generated_Source\PSoC4/CapSense_Structure.c **** 
  95:Generated_Source\PSoC4/CapSense_Structure.c **** /**
  96:Generated_Source\PSoC4/CapSense_Structure.c **** * \cond SECTION_API_CONSTANTS
  97:Generated_Source\PSoC4/CapSense_Structure.c **** * \addtogroup group_api_constants
  98:Generated_Source\PSoC4/CapSense_Structure.c **** * \{
  99:Generated_Source\PSoC4/CapSense_Structure.c **** */
 100:Generated_Source\PSoC4/CapSense_Structure.c **** /**
 101:Generated_Source\PSoC4/CapSense_Structure.c **** * Constant for the FLASH Data Structure
 102:Generated_Source\PSoC4/CapSense_Structure.c **** */
 103:Generated_Source\PSoC4/CapSense_Structure.c **** const CapSense_FLASH_STRUCT CapSense_dsFlash =
 104:Generated_Source\PSoC4/CapSense_Structure.c **** {
 105:Generated_Source\PSoC4/CapSense_Structure.c ****     /* Flash Widget Initialization Data */
 106:Generated_Source\PSoC4/CapSense_Structure.c ****     {
 107:Generated_Source\PSoC4/CapSense_Structure.c ****         { /* LinearSlider0 */
 108:Generated_Source\PSoC4/CapSense_Structure.c ****             &CapSense_ioList[0u],
 109:Generated_Source\PSoC4/CapSense_Structure.c ****             (void *)&CapSense_dsRam.wdgtList.linearslider0,
 110:Generated_Source\PSoC4/CapSense_Structure.c ****             CapSense_dsRam.snsList.linearslider0,
 111:Generated_Source\PSoC4/CapSense_Structure.c ****             (void *)0u,
 112:Generated_Source\PSoC4/CapSense_Structure.c ****             CapSense_debounceLinearSlider0,
 113:Generated_Source\PSoC4/CapSense_Structure.c ****             CapSense_LINEARSLIDER0_STATIC_CONFIG,
 114:Generated_Source\PSoC4/CapSense_Structure.c ****             CapSense_LINEARSLIDER0_NUM_SENSORS,
 115:Generated_Source\PSoC4/CapSense_Structure.c ****             (uint8)CapSense_WD_LINEAR_SLIDER_E,
 116:Generated_Source\PSoC4/CapSense_Structure.c ****             CapSense_LINEARSLIDER0_NUM_SENSORS,
 117:Generated_Source\PSoC4/CapSense_Structure.c ****             CapSense_LINEARSLIDER0_X_RESOLUTION,
 118:Generated_Source\PSoC4/CapSense_Structure.c ****             CapSense_LINEARSLIDER0_X_CENT_MULT,
 119:Generated_Source\PSoC4/CapSense_Structure.c ****             (void *)&CapSense_posHistoryLinearSlider0,
 120:Generated_Source\PSoC4/CapSense_Structure.c ****             CapSense_LINEARSLIDER0_IIR_FILTER_COEFF,
 121:Generated_Source\PSoC4/CapSense_Structure.c ****         },
 122:Generated_Source\PSoC4/CapSense_Structure.c ****     },
 123:Generated_Source\PSoC4/CapSense_Structure.c **** };
 124:Generated_Source\PSoC4/CapSense_Structure.c **** 
 125:Generated_Source\PSoC4/CapSense_Structure.c **** /**
 126:Generated_Source\PSoC4/CapSense_Structure.c **** * The array of the pointers to the electrode specific register.
 127:Generated_Source\PSoC4/CapSense_Structure.c **** */
 128:Generated_Source\PSoC4/CapSense_Structure.c **** const CapSense_FLASH_IO_STRUCT CapSense_ioList[CapSense_TOTAL_ELECTRODES] =
 129:Generated_Source\PSoC4/CapSense_Structure.c **** {
 130:Generated_Source\PSoC4/CapSense_Structure.c ****     { /* 0: LinearSlider0_Sns0 */
 131:Generated_Source\PSoC4/CapSense_Structure.c ****         (reg32 *)CapSense_Sns__0__HSIOM,
 132:Generated_Source\PSoC4/CapSense_Structure.c ****         (reg32 *)CapSense_Sns__0__PC,
 133:Generated_Source\PSoC4/CapSense_Structure.c ****         (reg32 *)CapSense_Sns__0__DR,
 134:Generated_Source\PSoC4/CapSense_Structure.c ****         (reg32 *)CapSense_Sns__0__PS,
 135:Generated_Source\PSoC4/CapSense_Structure.c ****         CapSense_Sns__0__HSIOM_MASK,
 136:Generated_Source\PSoC4/CapSense_Structure.c ****         CapSense_Sns__0__MASK,
 137:Generated_Source\PSoC4/CapSense_Structure.c ****         CapSense_Sns__0__HSIOM_SHIFT,
 138:Generated_Source\PSoC4/CapSense_Structure.c ****         (uint8)CapSense_Sns__0__SHIFT,
 139:Generated_Source\PSoC4/CapSense_Structure.c ****         (uint8)CapSense_Sns__0__SHIFT * 3u,
 140:Generated_Source\PSoC4/CapSense_Structure.c ****     },
 141:Generated_Source\PSoC4/CapSense_Structure.c ****     { /* 1: LinearSlider0_Sns1 */
 142:Generated_Source\PSoC4/CapSense_Structure.c ****         (reg32 *)CapSense_Sns__1__HSIOM,
 143:Generated_Source\PSoC4/CapSense_Structure.c ****         (reg32 *)CapSense_Sns__1__PC,
 144:Generated_Source\PSoC4/CapSense_Structure.c ****         (reg32 *)CapSense_Sns__1__DR,
 145:Generated_Source\PSoC4/CapSense_Structure.c ****         (reg32 *)CapSense_Sns__1__PS,
ARM GAS  C:\Users\JANUSD~1\AppData\Local\Temp\ccsiXrMH.s 			page 4


 146:Generated_Source\PSoC4/CapSense_Structure.c ****         CapSense_Sns__1__HSIOM_MASK,
 147:Generated_Source\PSoC4/CapSense_Structure.c ****         CapSense_Sns__1__MASK,
 148:Generated_Source\PSoC4/CapSense_Structure.c ****         CapSense_Sns__1__HSIOM_SHIFT,
 149:Generated_Source\PSoC4/CapSense_Structure.c ****         (uint8)CapSense_Sns__1__SHIFT,
 150:Generated_Source\PSoC4/CapSense_Structure.c ****         (uint8)CapSense_Sns__1__SHIFT * 3u,
 151:Generated_Source\PSoC4/CapSense_Structure.c ****     },
 152:Generated_Source\PSoC4/CapSense_Structure.c ****     { /* 2: LinearSlider0_Sns2 */
 153:Generated_Source\PSoC4/CapSense_Structure.c ****         (reg32 *)CapSense_Sns__2__HSIOM,
 154:Generated_Source\PSoC4/CapSense_Structure.c ****         (reg32 *)CapSense_Sns__2__PC,
 155:Generated_Source\PSoC4/CapSense_Structure.c ****         (reg32 *)CapSense_Sns__2__DR,
 156:Generated_Source\PSoC4/CapSense_Structure.c ****         (reg32 *)CapSense_Sns__2__PS,
 157:Generated_Source\PSoC4/CapSense_Structure.c ****         CapSense_Sns__2__HSIOM_MASK,
 158:Generated_Source\PSoC4/CapSense_Structure.c ****         CapSense_Sns__2__MASK,
 159:Generated_Source\PSoC4/CapSense_Structure.c ****         CapSense_Sns__2__HSIOM_SHIFT,
 160:Generated_Source\PSoC4/CapSense_Structure.c ****         (uint8)CapSense_Sns__2__SHIFT,
 161:Generated_Source\PSoC4/CapSense_Structure.c ****         (uint8)CapSense_Sns__2__SHIFT * 3u,
 162:Generated_Source\PSoC4/CapSense_Structure.c ****     },
 163:Generated_Source\PSoC4/CapSense_Structure.c ****     { /* 3: LinearSlider0_Sns3 */
 164:Generated_Source\PSoC4/CapSense_Structure.c ****         (reg32 *)CapSense_Sns__3__HSIOM,
 165:Generated_Source\PSoC4/CapSense_Structure.c ****         (reg32 *)CapSense_Sns__3__PC,
 166:Generated_Source\PSoC4/CapSense_Structure.c ****         (reg32 *)CapSense_Sns__3__DR,
 167:Generated_Source\PSoC4/CapSense_Structure.c ****         (reg32 *)CapSense_Sns__3__PS,
 168:Generated_Source\PSoC4/CapSense_Structure.c ****         CapSense_Sns__3__HSIOM_MASK,
 169:Generated_Source\PSoC4/CapSense_Structure.c ****         CapSense_Sns__3__MASK,
 170:Generated_Source\PSoC4/CapSense_Structure.c ****         CapSense_Sns__3__HSIOM_SHIFT,
 171:Generated_Source\PSoC4/CapSense_Structure.c ****         (uint8)CapSense_Sns__3__SHIFT,
 172:Generated_Source\PSoC4/CapSense_Structure.c ****         (uint8)CapSense_Sns__3__SHIFT * 3u,
 173:Generated_Source\PSoC4/CapSense_Structure.c ****     },
 174:Generated_Source\PSoC4/CapSense_Structure.c ****     { /* 4: LinearSlider0_Sns4 */
 175:Generated_Source\PSoC4/CapSense_Structure.c ****         (reg32 *)CapSense_Sns__4__HSIOM,
 176:Generated_Source\PSoC4/CapSense_Structure.c ****         (reg32 *)CapSense_Sns__4__PC,
 177:Generated_Source\PSoC4/CapSense_Structure.c ****         (reg32 *)CapSense_Sns__4__DR,
 178:Generated_Source\PSoC4/CapSense_Structure.c ****         (reg32 *)CapSense_Sns__4__PS,
 179:Generated_Source\PSoC4/CapSense_Structure.c ****         CapSense_Sns__4__HSIOM_MASK,
 180:Generated_Source\PSoC4/CapSense_Structure.c ****         CapSense_Sns__4__MASK,
 181:Generated_Source\PSoC4/CapSense_Structure.c ****         CapSense_Sns__4__HSIOM_SHIFT,
 182:Generated_Source\PSoC4/CapSense_Structure.c ****         (uint8)CapSense_Sns__4__SHIFT,
 183:Generated_Source\PSoC4/CapSense_Structure.c ****         (uint8)CapSense_Sns__4__SHIFT * 3u,
 184:Generated_Source\PSoC4/CapSense_Structure.c ****     },
 185:Generated_Source\PSoC4/CapSense_Structure.c **** };
 186:Generated_Source\PSoC4/CapSense_Structure.c **** 
 187:Generated_Source\PSoC4/CapSense_Structure.c **** 
 188:Generated_Source\PSoC4/CapSense_Structure.c **** 
 189:Generated_Source\PSoC4/CapSense_Structure.c **** /** \}
 190:Generated_Source\PSoC4/CapSense_Structure.c **** * \endcond */
 191:Generated_Source\PSoC4/CapSense_Structure.c **** 
 192:Generated_Source\PSoC4/CapSense_Structure.c **** /* Initialization data for RAM widget list */
 193:Generated_Source\PSoC4/CapSense_Structure.c **** const CapSense_RAM_WD_LIST_STRUCT CapSense_ramWidgetInit =
 194:Generated_Source\PSoC4/CapSense_Structure.c **** {
 195:Generated_Source\PSoC4/CapSense_Structure.c ****     { /* LinearSlider0 */
 196:Generated_Source\PSoC4/CapSense_Structure.c ****         CapSense_LINEARSLIDER0_RESOLUTION,
 197:Generated_Source\PSoC4/CapSense_Structure.c ****         CapSense_LINEARSLIDER0_FINGER_TH,
 198:Generated_Source\PSoC4/CapSense_Structure.c ****         CapSense_LINEARSLIDER0_NOISE_TH,
 199:Generated_Source\PSoC4/CapSense_Structure.c ****         CapSense_LINEARSLIDER0_NNOISE_TH,
 200:Generated_Source\PSoC4/CapSense_Structure.c ****         CapSense_LINEARSLIDER0_HYSTERESIS,
 201:Generated_Source\PSoC4/CapSense_Structure.c ****         CapSense_LINEARSLIDER0_ON_DEBOUNCE,
 202:Generated_Source\PSoC4/CapSense_Structure.c ****         CapSense_LINEARSLIDER0_LOW_BSLN_RST,
ARM GAS  C:\Users\JANUSD~1\AppData\Local\Temp\ccsiXrMH.s 			page 5


 203:Generated_Source\PSoC4/CapSense_Structure.c ****         {
 204:Generated_Source\PSoC4/CapSense_Structure.c ****             CapSense_LINEARSLIDER0_IDAC_MOD0,
 205:Generated_Source\PSoC4/CapSense_Structure.c ****         },
 206:Generated_Source\PSoC4/CapSense_Structure.c ****         CapSense_LINEARSLIDER0_SNS_CLK,
 207:Generated_Source\PSoC4/CapSense_Structure.c ****         CapSense_LINEARSLIDER0_SNS_CLK_SOURCE,
 208:Generated_Source\PSoC4/CapSense_Structure.c ****         {
 209:Generated_Source\PSoC4/CapSense_Structure.c ****             CapSense_LINEARSLIDER0_POSITION,
 210:Generated_Source\PSoC4/CapSense_Structure.c ****         },
 211:Generated_Source\PSoC4/CapSense_Structure.c ****     },
 212:Generated_Source\PSoC4/CapSense_Structure.c **** };
 213:Generated_Source\PSoC4/CapSense_Structure.c **** 
 214:Generated_Source\PSoC4/CapSense_Structure.c **** 
 215:Generated_Source\PSoC4/CapSense_Structure.c **** 
 216:Generated_Source\PSoC4/CapSense_Structure.c **** /*******************************************************************************
 217:Generated_Source\PSoC4/CapSense_Structure.c **** * Defines internal data types and statements
 218:Generated_Source\PSoC4/CapSense_Structure.c **** *******************************************************************************/
 219:Generated_Source\PSoC4/CapSense_Structure.c **** #define PARAM_TYPE_OFFSET       (30u)
 220:Generated_Source\PSoC4/CapSense_Structure.c **** #define PARAM_TYPE_MASK         (3Lu << PARAM_TYPE_OFFSET)
 221:Generated_Source\PSoC4/CapSense_Structure.c **** #define PARAM_RWBIT_OFFSET      (29u)
 222:Generated_Source\PSoC4/CapSense_Structure.c **** #define PARAM_RWBIT_MASK        (1Lu << PARAM_RWBIT_OFFSET)
 223:Generated_Source\PSoC4/CapSense_Structure.c **** #define PARAM_FBIT_OFFSET       (28u)
 224:Generated_Source\PSoC4/CapSense_Structure.c **** #define PARAM_FBIT_MASK         (1Lu << PARAM_FBIT_OFFSET)
 225:Generated_Source\PSoC4/CapSense_Structure.c **** #define PARAM_UBIT_OFFSET       (23u)
 226:Generated_Source\PSoC4/CapSense_Structure.c **** #define PARAM_UBIT_MASK         (1Lu << PARAM_UBIT_OFFSET)
 227:Generated_Source\PSoC4/CapSense_Structure.c **** #define PARAM_WDID_OFFSET       (16u)
 228:Generated_Source\PSoC4/CapSense_Structure.c **** #define PARAM_WDID_MASK         (0x7FLu << PARAM_WDID_OFFSET)
 229:Generated_Source\PSoC4/CapSense_Structure.c **** #define PARAM_CRC_OFFSET        (24u)
 230:Generated_Source\PSoC4/CapSense_Structure.c **** #define PARAM_CRC_MASK          (0x0FLu << PARAM_CRC_OFFSET)
 231:Generated_Source\PSoC4/CapSense_Structure.c **** 
 232:Generated_Source\PSoC4/CapSense_Structure.c **** /* Defines align masks for uint16 and uint32 */
 233:Generated_Source\PSoC4/CapSense_Structure.c **** #define UINT16_ALIGN_MASK       (1Lu)
 234:Generated_Source\PSoC4/CapSense_Structure.c **** #define UINT32_ALIGN_MASK       (3Lu)
 235:Generated_Source\PSoC4/CapSense_Structure.c **** 
 236:Generated_Source\PSoC4/CapSense_Structure.c **** /* Defines supported parameter types */
 237:Generated_Source\PSoC4/CapSense_Structure.c **** #define DS_PARAM_TYPE_UINT8     (0x01u)
 238:Generated_Source\PSoC4/CapSense_Structure.c **** #define DS_PARAM_TYPE_UINT16    (0x02u)
 239:Generated_Source\PSoC4/CapSense_Structure.c **** #define DS_PARAM_TYPE_UINT32    (0x03u)
 240:Generated_Source\PSoC4/CapSense_Structure.c **** 
 241:Generated_Source\PSoC4/CapSense_Structure.c **** 
 242:Generated_Source\PSoC4/CapSense_Structure.c **** /* Defines PARAM_ID structure */
 243:Generated_Source\PSoC4/CapSense_Structure.c **** typedef struct
 244:Generated_Source\PSoC4/CapSense_Structure.c **** {
 245:Generated_Source\PSoC4/CapSense_Structure.c ****     uint16 offset;      /* parameter offset */
 246:Generated_Source\PSoC4/CapSense_Structure.c ****     uint8  widgetId;    /* widget Id parameter belongs to */
 247:Generated_Source\PSoC4/CapSense_Structure.c ****     uint8  affectsCrc;  /* parameter affects widget CRC */
 248:Generated_Source\PSoC4/CapSense_Structure.c ****     uint8  crc;         /* parameter CRC */
 249:Generated_Source\PSoC4/CapSense_Structure.c ****     uint8  flash;       /* parameter located in FLASH flag */
 250:Generated_Source\PSoC4/CapSense_Structure.c ****     uint8  rw;          /* parameter is read/write flag */
 251:Generated_Source\PSoC4/CapSense_Structure.c ****     uint8  type;        /* parameter type: uint8/uint16/uint32 */
 252:Generated_Source\PSoC4/CapSense_Structure.c **** } PARAM_ID_STRUCT;
 253:Generated_Source\PSoC4/CapSense_Structure.c **** 
 254:Generated_Source\PSoC4/CapSense_Structure.c **** 
 255:Generated_Source\PSoC4/CapSense_Structure.c **** /*******************************************************************************
 256:Generated_Source\PSoC4/CapSense_Structure.c **** * Static Function Prototypes
 257:Generated_Source\PSoC4/CapSense_Structure.c **** *******************************************************************************/
 258:Generated_Source\PSoC4/CapSense_Structure.c **** /**
 259:Generated_Source\PSoC4/CapSense_Structure.c **** * \cond SECTION_C_INTERNAL
ARM GAS  C:\Users\JANUSD~1\AppData\Local\Temp\ccsiXrMH.s 			page 6


 260:Generated_Source\PSoC4/CapSense_Structure.c **** * \addtogroup group_c_internal
 261:Generated_Source\PSoC4/CapSense_Structure.c **** * \{
 262:Generated_Source\PSoC4/CapSense_Structure.c **** */
 263:Generated_Source\PSoC4/CapSense_Structure.c **** 
 264:Generated_Source\PSoC4/CapSense_Structure.c **** 
 265:Generated_Source\PSoC4/CapSense_Structure.c **** 
 266:Generated_Source\PSoC4/CapSense_Structure.c **** static cystatus DsParseParamId(uint32 paramId, PARAM_ID_STRUCT *pData);
 267:Generated_Source\PSoC4/CapSense_Structure.c **** 
 268:Generated_Source\PSoC4/CapSense_Structure.c **** /** \}
 269:Generated_Source\PSoC4/CapSense_Structure.c **** * \endcond */
 270:Generated_Source\PSoC4/CapSense_Structure.c **** 
 271:Generated_Source\PSoC4/CapSense_Structure.c **** 
 272:Generated_Source\PSoC4/CapSense_Structure.c **** /*******************************************************************************
 273:Generated_Source\PSoC4/CapSense_Structure.c **** * Function Name: CapSense_DsInitialize
 274:Generated_Source\PSoC4/CapSense_Structure.c **** ****************************************************************************//**
 275:Generated_Source\PSoC4/CapSense_Structure.c **** *
 276:Generated_Source\PSoC4/CapSense_Structure.c **** * \brief
 277:Generated_Source\PSoC4/CapSense_Structure.c **** *   This function initializes the Data Structure storage.
 278:Generated_Source\PSoC4/CapSense_Structure.c **** *
 279:Generated_Source\PSoC4/CapSense_Structure.c **** * \details
 280:Generated_Source\PSoC4/CapSense_Structure.c **** *   This function copies the default widget configuration parameters
 281:Generated_Source\PSoC4/CapSense_Structure.c **** *   from the Flash storage into the RAM Data Structure.
 282:Generated_Source\PSoC4/CapSense_Structure.c **** *
 283:Generated_Source\PSoC4/CapSense_Structure.c **** *******************************************************************************/
 284:Generated_Source\PSoC4/CapSense_Structure.c **** void CapSense_DsInitialize(void)
 285:Generated_Source\PSoC4/CapSense_Structure.c **** {
 286:Generated_Source\PSoC4/CapSense_Structure.c ****     #if ((CapSense_ENABLE == CapSense_CSX_EN) || \
 287:Generated_Source\PSoC4/CapSense_Structure.c ****          (CapSense_ENABLE == CapSense_CSD_IDAC_COMP_EN) || \
 288:Generated_Source\PSoC4/CapSense_Structure.c ****         ((CapSense_ENABLE == CapSense_CSX_EN) && \
 289:Generated_Source\PSoC4/CapSense_Structure.c ****          (CapSense_ENABLE == CapSense_CSX_SKIP_OVSMPL_SPECIFIC_NODES)))
 290:Generated_Source\PSoC4/CapSense_Structure.c ****         uint32 snsId;
 291:Generated_Source\PSoC4/CapSense_Structure.c ****         uint32 wdgtId;
 292:Generated_Source\PSoC4/CapSense_Structure.c ****         CapSense_RAM_SNS_STRUCT * ptrSnsTmp;
 293:Generated_Source\PSoC4/CapSense_Structure.c ****         CapSense_FLASH_WD_STRUCT const * ptrFlashWdgt;
 294:Generated_Source\PSoC4/CapSense_Structure.c ****     #endif
 295:Generated_Source\PSoC4/CapSense_Structure.c **** 
 296:Generated_Source\PSoC4/CapSense_Structure.c ****     #if ((CapSense_ENABLE == CapSense_CSX_EN) && \
 297:Generated_Source\PSoC4/CapSense_Structure.c ****          (CapSense_ENABLE == CapSense_CSX_SKIP_OVSMPL_SPECIFIC_NODES))
 298:Generated_Source\PSoC4/CapSense_Structure.c ****         uint16 subConvNumber;
 299:Generated_Source\PSoC4/CapSense_Structure.c ****     #endif
 300:Generated_Source\PSoC4/CapSense_Structure.c **** 
 301:Generated_Source\PSoC4/CapSense_Structure.c ****     #if ((0u != CapSense_CSX_EN) || (0 != CapSense_CSD_IDAC_COMP_EN))
 302:Generated_Source\PSoC4/CapSense_Structure.c ****         uint8 const * ptrIdacInit = CapSense_ramIdacInit;
 303:Generated_Source\PSoC4/CapSense_Structure.c ****     #endif
 304:Generated_Source\PSoC4/CapSense_Structure.c **** 
 305:Generated_Source\PSoC4/CapSense_Structure.c ****     /* Reset RAM data structure content */
 306:Generated_Source\PSoC4/CapSense_Structure.c ****     (void)memset(&CapSense_dsRam, 0, sizeof(CapSense_dsRam));
 307:Generated_Source\PSoC4/CapSense_Structure.c **** 
 308:Generated_Source\PSoC4/CapSense_Structure.c ****     /* Initialize configId, deviceId and hwClock registers */
 309:Generated_Source\PSoC4/CapSense_Structure.c ****     CapSense_dsRam.configId = CapSense_CONFIG_ID;
 310:Generated_Source\PSoC4/CapSense_Structure.c ****     CapSense_dsRam.deviceId = CapSense_DEVICE_ID;
 311:Generated_Source\PSoC4/CapSense_Structure.c ****     CapSense_dsRam.hwClock = CapSense_HW_CLOCK;
 312:Generated_Source\PSoC4/CapSense_Structure.c **** 
 313:Generated_Source\PSoC4/CapSense_Structure.c ****     /* Initialize global RAM data */
 314:Generated_Source\PSoC4/CapSense_Structure.c ****     CapSense_dsRam.csd0Config = CapSense_CSD0_CONFIG;
 315:Generated_Source\PSoC4/CapSense_Structure.c **** 
 316:Generated_Source\PSoC4/CapSense_Structure.c ****     #if (0u != CapSense_TOTAL_CSD_WIDGETS)
ARM GAS  C:\Users\JANUSD~1\AppData\Local\Temp\ccsiXrMH.s 			page 7


 317:Generated_Source\PSoC4/CapSense_Structure.c ****         CapSense_dsRam.modCsdClk = CapSense_CSD_SCANSPEED_DIVIDER;
 318:Generated_Source\PSoC4/CapSense_Structure.c **** 
 319:Generated_Source\PSoC4/CapSense_Structure.c ****         #if (0u != CapSense_CSD_COMMON_SNS_CLK_EN)
 320:Generated_Source\PSoC4/CapSense_Structure.c ****             CapSense_dsRam.snsCsdClk = CapSense_CSD_SNS_CLK_DIVIDER;
 321:Generated_Source\PSoC4/CapSense_Structure.c ****         #endif /* #if (0u != CapSense_CSD_COMMON_SNS_CLK_EN) */
 322:Generated_Source\PSoC4/CapSense_Structure.c ****     #endif /* #if (0u != CapSense_TOTAL_CSD_WIDGETS) */
 323:Generated_Source\PSoC4/CapSense_Structure.c **** 
 324:Generated_Source\PSoC4/CapSense_Structure.c ****     #if (0u != CapSense_CSX_EN)
 325:Generated_Source\PSoC4/CapSense_Structure.c ****         CapSense_dsRam.modCsxClk = CapSense_CSX_SCANSPEED_DIVIDER;
 326:Generated_Source\PSoC4/CapSense_Structure.c **** 
 327:Generated_Source\PSoC4/CapSense_Structure.c ****         #if (0u != CapSense_CSX_COMMON_TX_CLK_EN)
 328:Generated_Source\PSoC4/CapSense_Structure.c ****             CapSense_dsRam.snsCsxClk = CapSense_CSX_TX_CLK_DIVIDER;
 329:Generated_Source\PSoC4/CapSense_Structure.c ****         #endif /* #if (0u != CapSense_CSX_COMMON_TX_CLK_EN) */
 330:Generated_Source\PSoC4/CapSense_Structure.c ****     #endif /* #if (0u != CapSense_CSX_EN) */
 331:Generated_Source\PSoC4/CapSense_Structure.c **** 
 332:Generated_Source\PSoC4/CapSense_Structure.c ****     #if (0u != CapSense_ISX_EN)
 333:Generated_Source\PSoC4/CapSense_Structure.c ****         CapSense_dsRam.modIsxClk = CapSense_ISX_SCANSPEED_DIVIDER;
 334:Generated_Source\PSoC4/CapSense_Structure.c ****     #endif /* #if (0u != CapSense_ISX_EN) */
 335:Generated_Source\PSoC4/CapSense_Structure.c **** 
 336:Generated_Source\PSoC4/CapSense_Structure.c ****     #if (0u != CapSense_SELF_TEST_EN)
 337:Generated_Source\PSoC4/CapSense_Structure.c ****         CapSense_dsRam.glbCrc = CapSense_GLB_CRC;
 338:Generated_Source\PSoC4/CapSense_Structure.c ****     #endif /* #if (0u != CapSense_SELF_TEST_EN) */
 339:Generated_Source\PSoC4/CapSense_Structure.c **** 
 340:Generated_Source\PSoC4/CapSense_Structure.c ****     /* Initialize RAM widget data */
 341:Generated_Source\PSoC4/CapSense_Structure.c ****     CapSense_dsRam.wdgtList = CapSense_ramWidgetInit;
 342:Generated_Source\PSoC4/CapSense_Structure.c **** 
 343:Generated_Source\PSoC4/CapSense_Structure.c ****     /* Initialize Gesture configuration structure */
 344:Generated_Source\PSoC4/CapSense_Structure.c ****     #if ((0u != CapSense_GES_GLOBAL_EN) || (0u != CapSense_BALLISTIC_MULTIPLIER_EN))
 345:Generated_Source\PSoC4/CapSense_Structure.c ****         CapSense_dsRam.timestampInterval = CapSense_TIMESTAMP_INTERVAL;
 346:Generated_Source\PSoC4/CapSense_Structure.c ****     #endif /* ((0u != CapSense_GES_GLOBAL_EN) || (0u != CapSense_BALLISTIC_MULTIPLIER_EN)) */
 347:Generated_Source\PSoC4/CapSense_Structure.c ****         
 348:Generated_Source\PSoC4/CapSense_Structure.c ****     #if (0u != CapSense_GES_GLOBAL_EN)
 349:Generated_Source\PSoC4/CapSense_Structure.c ****         CapSense_dsRam.gestures = CapSense_ramGesturesInit;
 350:Generated_Source\PSoC4/CapSense_Structure.c ****     #endif /* (0u != CapSense_GES_GLOBAL_EN) */
 351:Generated_Source\PSoC4/CapSense_Structure.c **** 
 352:Generated_Source\PSoC4/CapSense_Structure.c ****     #if (0u != CapSense_BALLISTIC_MULTIPLIER_EN)
 353:Generated_Source\PSoC4/CapSense_Structure.c ****         CapSense_dsRam.ballisticConfig = CapSense_ramBallisticInit;
 354:Generated_Source\PSoC4/CapSense_Structure.c ****     #endif /* (0u != CapSense_BALLISTIC_MULTIPLIER_EN) */
 355:Generated_Source\PSoC4/CapSense_Structure.c **** 
 356:Generated_Source\PSoC4/CapSense_Structure.c ****     #if (0u != CapSense_CSX_EN) || (0 != CapSense_CSD_IDAC_COMP_EN)
 357:Generated_Source\PSoC4/CapSense_Structure.c ****         /* Initialize IDAC data */
 358:Generated_Source\PSoC4/CapSense_Structure.c ****         ptrFlashWdgt = CapSense_dsFlash.wdgtArray;
 359:Generated_Source\PSoC4/CapSense_Structure.c **** 
 360:Generated_Source\PSoC4/CapSense_Structure.c ****         for (wdgtId = CapSense_TOTAL_WIDGETS; wdgtId-- > 0u; )
 361:Generated_Source\PSoC4/CapSense_Structure.c ****         {
 362:Generated_Source\PSoC4/CapSense_Structure.c ****             ptrSnsTmp = ptrFlashWdgt->ptr2SnsRam;
 363:Generated_Source\PSoC4/CapSense_Structure.c **** 
 364:Generated_Source\PSoC4/CapSense_Structure.c ****             for (snsId = CapSense_GET_SNS_CNT_BY_PTR(ptrFlashWdgt); snsId-- > 0u;)
 365:Generated_Source\PSoC4/CapSense_Structure.c ****             {
 366:Generated_Source\PSoC4/CapSense_Structure.c ****                 ptrSnsTmp->idacComp[0u] = *ptrIdacInit;
 367:Generated_Source\PSoC4/CapSense_Structure.c ****                 ptrIdacInit++;
 368:Generated_Source\PSoC4/CapSense_Structure.c **** 
 369:Generated_Source\PSoC4/CapSense_Structure.c ****                 #if (0u != CapSense_MULTI_FREQ_SCAN_EN)
 370:Generated_Source\PSoC4/CapSense_Structure.c ****                     ptrSnsTmp->idacComp[1u] = *ptrIdacInit;
 371:Generated_Source\PSoC4/CapSense_Structure.c ****                     ptrIdacInit++;
 372:Generated_Source\PSoC4/CapSense_Structure.c **** 
 373:Generated_Source\PSoC4/CapSense_Structure.c ****                     ptrSnsTmp->idacComp[2u] = *ptrIdacInit;
ARM GAS  C:\Users\JANUSD~1\AppData\Local\Temp\ccsiXrMH.s 			page 8


 374:Generated_Source\PSoC4/CapSense_Structure.c ****                     ptrIdacInit++;
 375:Generated_Source\PSoC4/CapSense_Structure.c ****                 #endif /* #if (0u != CapSense_MULTI_FREQ_SCAN_EN) */
 376:Generated_Source\PSoC4/CapSense_Structure.c **** 
 377:Generated_Source\PSoC4/CapSense_Structure.c ****                 ptrSnsTmp++;
 378:Generated_Source\PSoC4/CapSense_Structure.c ****             }
 379:Generated_Source\PSoC4/CapSense_Structure.c **** 
 380:Generated_Source\PSoC4/CapSense_Structure.c ****             ptrFlashWdgt++; /* Move to next widget */
 381:Generated_Source\PSoC4/CapSense_Structure.c ****         }
 382:Generated_Source\PSoC4/CapSense_Structure.c ****     #endif /*(0u != CapSense_CSX_EN) || (0 != CapSense_CSD_IDAC_COMP_EN)*/
 383:Generated_Source\PSoC4/CapSense_Structure.c **** 
 384:Generated_Source\PSoC4/CapSense_Structure.c ****     #if ((CapSense_ENABLE == CapSense_CSX_EN) && \
 385:Generated_Source\PSoC4/CapSense_Structure.c ****          (CapSense_ENABLE == CapSense_CSX_SKIP_OVSMPL_SPECIFIC_NODES))
 386:Generated_Source\PSoC4/CapSense_Structure.c ****         /* Initialize Sub-Conversion Number for each node of each CSX widget */
 387:Generated_Source\PSoC4/CapSense_Structure.c ****         ptrFlashWdgt = CapSense_dsFlash.wdgtArray;
 388:Generated_Source\PSoC4/CapSense_Structure.c ****         for (wdgtId = CapSense_TOTAL_WIDGETS; wdgtId-- > 0u;)
 389:Generated_Source\PSoC4/CapSense_Structure.c ****         {
 390:Generated_Source\PSoC4/CapSense_Structure.c ****             /* Check for widget sense method */
 391:Generated_Source\PSoC4/CapSense_Structure.c ****             if (CapSense_SENSE_METHOD_CSX_E == CapSense_GET_SENSE_METHOD(ptrFlashWdgt))
 392:Generated_Source\PSoC4/CapSense_Structure.c ****             {
 393:Generated_Source\PSoC4/CapSense_Structure.c ****                 /* Take the sub-convesion number of a CSX widget and initialize each node of this w
 394:Generated_Source\PSoC4/CapSense_Structure.c ****                 subConvNumber = ((CapSense_RAM_WD_BASE_STRUCT *)(ptrFlashWdgt->ptr2WdgtRam))->resol
 395:Generated_Source\PSoC4/CapSense_Structure.c ****                 ptrSnsTmp = ptrFlashWdgt->ptr2SnsRam;
 396:Generated_Source\PSoC4/CapSense_Structure.c ****                 for (snsId = CapSense_GET_SNS_CNT_BY_PTR(ptrFlashWdgt); snsId-- > 0u;)
 397:Generated_Source\PSoC4/CapSense_Structure.c ****                 {
 398:Generated_Source\PSoC4/CapSense_Structure.c ****                     ptrSnsTmp->subConvNum = subConvNumber;
 399:Generated_Source\PSoC4/CapSense_Structure.c ****                     ptrSnsTmp++;
 400:Generated_Source\PSoC4/CapSense_Structure.c ****                 }
 401:Generated_Source\PSoC4/CapSense_Structure.c ****             }
 402:Generated_Source\PSoC4/CapSense_Structure.c ****             /* Move to the next widget */
 403:Generated_Source\PSoC4/CapSense_Structure.c ****             ptrFlashWdgt++;
 404:Generated_Source\PSoC4/CapSense_Structure.c ****         }
 405:Generated_Source\PSoC4/CapSense_Structure.c ****     #endif /* ((CapSense_ENABLE == CapSense_CSX_EN) && \
 406:Generated_Source\PSoC4/CapSense_Structure.c ****                (CapSense_ENABLE == CapSense_CSX_SKIP_OVSMPL_SPECIFIC_NODES)) */
 407:Generated_Source\PSoC4/CapSense_Structure.c **** 
 408:Generated_Source\PSoC4/CapSense_Structure.c ****     #if (0u != CapSense_ADC_EN)
 409:Generated_Source\PSoC4/CapSense_Structure.c ****         CapSense_AdcDsInitialize();
 410:Generated_Source\PSoC4/CapSense_Structure.c ****     #endif /* (0u != CapSense_ADC_EN) */
 411:Generated_Source\PSoC4/CapSense_Structure.c **** }
 412:Generated_Source\PSoC4/CapSense_Structure.c **** 
 413:Generated_Source\PSoC4/CapSense_Structure.c **** 
 414:Generated_Source\PSoC4/CapSense_Structure.c **** #if (0u != CapSense_ADC_EN)
 415:Generated_Source\PSoC4/CapSense_Structure.c ****     /*******************************************************************************
 416:Generated_Source\PSoC4/CapSense_Structure.c ****     * Function Name: CapSense_AdcDsInitialize
 417:Generated_Source\PSoC4/CapSense_Structure.c ****     ****************************************************************************//**
 418:Generated_Source\PSoC4/CapSense_Structure.c ****     *
 419:Generated_Source\PSoC4/CapSense_Structure.c ****     * \brief
 420:Generated_Source\PSoC4/CapSense_Structure.c ****     *   Configures the initial Adc datastructure members.
 421:Generated_Source\PSoC4/CapSense_Structure.c ****     *
 422:Generated_Source\PSoC4/CapSense_Structure.c ****     *******************************************************************************/
 423:Generated_Source\PSoC4/CapSense_Structure.c ****     void CapSense_AdcDsInitialize(void)
 424:Generated_Source\PSoC4/CapSense_Structure.c ****     {
 425:Generated_Source\PSoC4/CapSense_Structure.c ****         CapSense_dsRam.adcResolution = CapSense_ADC_RESOLUTION;
 426:Generated_Source\PSoC4/CapSense_Structure.c ****         CapSense_dsRam.adcIdac = (uint8)(CapSense_ADC_IDAC_DEFAULT);
 427:Generated_Source\PSoC4/CapSense_Structure.c ****         CapSense_dsRam.adcActiveCh = CapSense_AdcNO_CHANNEL;
 428:Generated_Source\PSoC4/CapSense_Structure.c ****     }
 429:Generated_Source\PSoC4/CapSense_Structure.c **** #endif /* (0u != CapSense_ADC_EN) */
 430:Generated_Source\PSoC4/CapSense_Structure.c **** 
ARM GAS  C:\Users\JANUSD~1\AppData\Local\Temp\ccsiXrMH.s 			page 9


 431:Generated_Source\PSoC4/CapSense_Structure.c **** 
 432:Generated_Source\PSoC4/CapSense_Structure.c **** /*******************************************************************************
 433:Generated_Source\PSoC4/CapSense_Structure.c **** * Function Name: DsParseParamId
 434:Generated_Source\PSoC4/CapSense_Structure.c **** ****************************************************************************//**
 435:Generated_Source\PSoC4/CapSense_Structure.c **** *
 436:Generated_Source\PSoC4/CapSense_Structure.c **** * \brief
 437:Generated_Source\PSoC4/CapSense_Structure.c **** *   This function parses the parameter ID and checks its correctness.
 438:Generated_Source\PSoC4/CapSense_Structure.c **** *
 439:Generated_Source\PSoC4/CapSense_Structure.c **** * \details
 440:Generated_Source\PSoC4/CapSense_Structure.c **** *   This function checks the parameter CRC if the self-test is enabled,
 441:Generated_Source\PSoC4/CapSense_Structure.c **** *   validates the offset value and parameter type.
 442:Generated_Source\PSoC4/CapSense_Structure.c **** *
 443:Generated_Source\PSoC4/CapSense_Structure.c **** * \param paramId The parameter to parse.
 444:Generated_Source\PSoC4/CapSense_Structure.c **** * \param pData   The pointer to the structure that will hold parsed data.
 445:Generated_Source\PSoC4/CapSense_Structure.c **** *
 446:Generated_Source\PSoC4/CapSense_Structure.c **** * \return CYRET_SUCCESS     If the parameter is valid
 447:Generated_Source\PSoC4/CapSense_Structure.c **** *         CYRET_BAD_PARAM   If the parameter is invalid
 448:Generated_Source\PSoC4/CapSense_Structure.c **** *
 449:Generated_Source\PSoC4/CapSense_Structure.c **** *******************************************************************************/
 450:Generated_Source\PSoC4/CapSense_Structure.c **** static cystatus DsParseParamId(uint32 paramId, PARAM_ID_STRUCT *pData)
 451:Generated_Source\PSoC4/CapSense_Structure.c **** {
  27              		.loc 1 451 0
  28              		.cfi_startproc
  29              		@ args = 0, pretend = 0, frame = 0
  30              		@ frame_needed = 0, uses_anonymous_args = 0
  31              	.LVL0:
  32 0000 70B5     		push	{r4, r5, r6, lr}
  33              		.cfi_def_cfa_offset 16
  34              		.cfi_offset 4, -16
  35              		.cfi_offset 5, -12
  36              		.cfi_offset 6, -8
  37              		.cfi_offset 14, -4
  38              	.LVL1:
 452:Generated_Source\PSoC4/CapSense_Structure.c ****     cystatus result = CYRET_SUCCESS;
 453:Generated_Source\PSoC4/CapSense_Structure.c **** 
 454:Generated_Source\PSoC4/CapSense_Structure.c ****     #if (0u != CapSense_SELF_TEST_EN)
 455:Generated_Source\PSoC4/CapSense_Structure.c ****         const uint8 crcTable[] =
 456:Generated_Source\PSoC4/CapSense_Structure.c ****         {
 457:Generated_Source\PSoC4/CapSense_Structure.c ****             0x00u, 0x09u, 0x0Bu, 0x02u, 0x0Fu, 0x06u, 0x04u, 0x0Du,
 458:Generated_Source\PSoC4/CapSense_Structure.c ****             0x07u, 0x0Eu, 0x0Cu, 0x05u, 0x08u, 0x01u, 0x03u, 0x0Au
 459:Generated_Source\PSoC4/CapSense_Structure.c ****         };
 460:Generated_Source\PSoC4/CapSense_Structure.c **** 
 461:Generated_Source\PSoC4/CapSense_Structure.c ****         uint32 i;
 462:Generated_Source\PSoC4/CapSense_Structure.c ****         uint32 actualCrc = 0u;
 463:Generated_Source\PSoC4/CapSense_Structure.c ****         uint32 crcIndex;
 464:Generated_Source\PSoC4/CapSense_Structure.c ****     #endif /* #if (0u != CapSense_SELF_TEST_EN) */
 465:Generated_Source\PSoC4/CapSense_Structure.c **** 
 466:Generated_Source\PSoC4/CapSense_Structure.c ****     /* Extract parameter data */
 467:Generated_Source\PSoC4/CapSense_Structure.c ****     pData->offset     = LO16(paramId);
  39              		.loc 1 467 0
  40 0002 85B2     		uxth	r5, r0
  41 0004 0D80     		strh	r5, [r1]
 468:Generated_Source\PSoC4/CapSense_Structure.c ****     pData->affectsCrc = LO8((paramId & PARAM_UBIT_MASK)  >> PARAM_UBIT_OFFSET);
  42              		.loc 1 468 0
  43 0006 C30D     		lsrs	r3, r0, #23
  44 0008 0124     		movs	r4, #1
  45 000a 2340     		ands	r3, r4
ARM GAS  C:\Users\JANUSD~1\AppData\Local\Temp\ccsiXrMH.s 			page 10


  46 000c CB70     		strb	r3, [r1, #3]
 469:Generated_Source\PSoC4/CapSense_Structure.c ****     pData->widgetId   = LO8((paramId & PARAM_WDID_MASK)  >> PARAM_WDID_OFFSET);
  47              		.loc 1 469 0
  48 000e 030C     		lsrs	r3, r0, #16
  49 0010 7F22     		movs	r2, #127
  50 0012 1340     		ands	r3, r2
  51 0014 8B70     		strb	r3, [r1, #2]
 470:Generated_Source\PSoC4/CapSense_Structure.c ****     pData->type       = LO8((paramId & PARAM_TYPE_MASK)  >> PARAM_TYPE_OFFSET);
  52              		.loc 1 470 0
  53 0016 860F     		lsrs	r6, r0, #30
  54 0018 CE71     		strb	r6, [r1, #7]
 471:Generated_Source\PSoC4/CapSense_Structure.c ****     pData->flash      = LO8((paramId & PARAM_FBIT_MASK)  >> PARAM_FBIT_OFFSET);
  55              		.loc 1 471 0
  56 001a 030F     		lsrs	r3, r0, #28
  57 001c 2340     		ands	r3, r4
  58 001e 4B71     		strb	r3, [r1, #5]
 472:Generated_Source\PSoC4/CapSense_Structure.c ****     pData->rw         = LO8((paramId & PARAM_RWBIT_MASK) >> PARAM_RWBIT_OFFSET);
  59              		.loc 1 472 0
  60 0020 420F     		lsrs	r2, r0, #29
  61 0022 2240     		ands	r2, r4
  62 0024 8A71     		strb	r2, [r1, #6]
 473:Generated_Source\PSoC4/CapSense_Structure.c ****     pData->crc        = LO8((paramId & PARAM_CRC_MASK)   >> PARAM_CRC_OFFSET);
  63              		.loc 1 473 0
  64 0026 000E     		lsrs	r0, r0, #24
  65              	.LVL2:
  66 0028 0E34     		adds	r4, r4, #14
  67 002a 2040     		ands	r0, r4
  68 002c 0871     		strb	r0, [r1, #4]
 474:Generated_Source\PSoC4/CapSense_Structure.c **** 
 475:Generated_Source\PSoC4/CapSense_Structure.c ****     /* Check parameter CRC if self-test is enabled */
 476:Generated_Source\PSoC4/CapSense_Structure.c ****     #if (0u != CapSense_SELF_TEST_EN)
 477:Generated_Source\PSoC4/CapSense_Structure.c **** 
 478:Generated_Source\PSoC4/CapSense_Structure.c ****         /* Calculate CRC for bits 0..24.
 479:Generated_Source\PSoC4/CapSense_Structure.c ****          * The CRC is calculated using nibbles (4-bits).
 480:Generated_Source\PSoC4/CapSense_Structure.c ****          * So for 0..24 bits there are in total 6 nibbles. */
 481:Generated_Source\PSoC4/CapSense_Structure.c ****         for (i = 6u; i > 0u; i--)
 482:Generated_Source\PSoC4/CapSense_Structure.c ****         {
 483:Generated_Source\PSoC4/CapSense_Structure.c ****             crcIndex = actualCrc ^ (paramId & 0x0Fu);
 484:Generated_Source\PSoC4/CapSense_Structure.c ****             actualCrc = crcTable[crcIndex];
 485:Generated_Source\PSoC4/CapSense_Structure.c ****             paramId >>= 4u;
 486:Generated_Source\PSoC4/CapSense_Structure.c ****         }
 487:Generated_Source\PSoC4/CapSense_Structure.c **** 
 488:Generated_Source\PSoC4/CapSense_Structure.c ****         /* Add bits 28..32 */
 489:Generated_Source\PSoC4/CapSense_Structure.c ****         crcIndex = actualCrc ^ ((paramId >> 4u) & 0x0Fu);
 490:Generated_Source\PSoC4/CapSense_Structure.c ****         actualCrc = crcTable[crcIndex];
 491:Generated_Source\PSoC4/CapSense_Structure.c **** 
 492:Generated_Source\PSoC4/CapSense_Structure.c ****         /* Add bits 24..28 (CRC) */
 493:Generated_Source\PSoC4/CapSense_Structure.c ****         crcIndex = actualCrc ^ (paramId & 0x0Fu);
 494:Generated_Source\PSoC4/CapSense_Structure.c ****         actualCrc = crcTable[crcIndex];
 495:Generated_Source\PSoC4/CapSense_Structure.c **** 
 496:Generated_Source\PSoC4/CapSense_Structure.c ****         if (0u != actualCrc)
 497:Generated_Source\PSoC4/CapSense_Structure.c ****         {
 498:Generated_Source\PSoC4/CapSense_Structure.c ****             /* CRC mismatch */
 499:Generated_Source\PSoC4/CapSense_Structure.c ****             result = CYRET_BAD_PARAM;
 500:Generated_Source\PSoC4/CapSense_Structure.c ****         }
 501:Generated_Source\PSoC4/CapSense_Structure.c **** 
 502:Generated_Source\PSoC4/CapSense_Structure.c ****         if ((CYRET_SUCCESS == result) &&
ARM GAS  C:\Users\JANUSD~1\AppData\Local\Temp\ccsiXrMH.s 			page 11


 503:Generated_Source\PSoC4/CapSense_Structure.c ****             (0u != pData->affectsCrc) && (pData->widgetId >= CapSense_TOTAL_WIDGETS ))
 504:Generated_Source\PSoC4/CapSense_Structure.c ****         {
 505:Generated_Source\PSoC4/CapSense_Structure.c ****             /* Wrong widgetId for protected parameter */
 506:Generated_Source\PSoC4/CapSense_Structure.c ****             result = CYRET_BAD_PARAM;
 507:Generated_Source\PSoC4/CapSense_Structure.c ****         }
 508:Generated_Source\PSoC4/CapSense_Structure.c **** 
 509:Generated_Source\PSoC4/CapSense_Structure.c ****         /* Check offset value range */
 510:Generated_Source\PSoC4/CapSense_Structure.c ****         if (CYRET_SUCCESS == result)
 511:Generated_Source\PSoC4/CapSense_Structure.c ****         {
 512:Generated_Source\PSoC4/CapSense_Structure.c ****             if (0u == pData->flash)
 513:Generated_Source\PSoC4/CapSense_Structure.c ****             {
 514:Generated_Source\PSoC4/CapSense_Structure.c ****                 /* Check offset for RAM Data Structure range */
 515:Generated_Source\PSoC4/CapSense_Structure.c ****                 if (pData->offset >= sizeof(CapSense_dsRam))
 516:Generated_Source\PSoC4/CapSense_Structure.c ****                 {
 517:Generated_Source\PSoC4/CapSense_Structure.c ****                     result = CYRET_BAD_PARAM;
 518:Generated_Source\PSoC4/CapSense_Structure.c ****                 }
 519:Generated_Source\PSoC4/CapSense_Structure.c ****             }
 520:Generated_Source\PSoC4/CapSense_Structure.c ****             else
 521:Generated_Source\PSoC4/CapSense_Structure.c ****             {
 522:Generated_Source\PSoC4/CapSense_Structure.c ****                 /* Check offset for Flash Data Structure range */
 523:Generated_Source\PSoC4/CapSense_Structure.c ****                 if (pData->offset >= sizeof(CapSense_dsFlash))
 524:Generated_Source\PSoC4/CapSense_Structure.c ****                 {
 525:Generated_Source\PSoC4/CapSense_Structure.c ****                     result = CYRET_BAD_PARAM;
 526:Generated_Source\PSoC4/CapSense_Structure.c ****                 }
 527:Generated_Source\PSoC4/CapSense_Structure.c **** 
 528:Generated_Source\PSoC4/CapSense_Structure.c ****                 /* Check if it is marked as Read Only */
 529:Generated_Source\PSoC4/CapSense_Structure.c ****                 if (0u != pData->rw)
 530:Generated_Source\PSoC4/CapSense_Structure.c ****                 {
 531:Generated_Source\PSoC4/CapSense_Structure.c ****                     result = CYRET_BAD_PARAM;
 532:Generated_Source\PSoC4/CapSense_Structure.c ****                 }
 533:Generated_Source\PSoC4/CapSense_Structure.c ****             }
 534:Generated_Source\PSoC4/CapSense_Structure.c ****         }
 535:Generated_Source\PSoC4/CapSense_Structure.c ****     #else /* #if (0u != CapSense_SELF_TEST_EN) */
 536:Generated_Source\PSoC4/CapSense_Structure.c ****         /* Check offset value range */
 537:Generated_Source\PSoC4/CapSense_Structure.c ****         if (0u == pData->flash)
  69              		.loc 1 537 0
  70 002e 002B     		cmp	r3, #0
  71 0030 03D1     		bne	.L2
 538:Generated_Source\PSoC4/CapSense_Structure.c ****         {
 539:Generated_Source\PSoC4/CapSense_Structure.c ****             /* Check offset for RAM Data Structure range */
 540:Generated_Source\PSoC4/CapSense_Structure.c ****             if (pData->offset >= sizeof(CapSense_dsRam))
  72              		.loc 1 540 0
  73 0032 672D     		cmp	r5, #103
  74 0034 09D8     		bhi	.L9
 452:Generated_Source\PSoC4/CapSense_Structure.c **** 
  75              		.loc 1 452 0
  76 0036 0020     		movs	r0, #0
  77 0038 0AE0     		b	.L3
  78              	.L2:
 541:Generated_Source\PSoC4/CapSense_Structure.c ****             {
 542:Generated_Source\PSoC4/CapSense_Structure.c ****                 result = CYRET_BAD_PARAM;
 543:Generated_Source\PSoC4/CapSense_Structure.c ****             }
 544:Generated_Source\PSoC4/CapSense_Structure.c ****         }
 545:Generated_Source\PSoC4/CapSense_Structure.c ****         else
 546:Generated_Source\PSoC4/CapSense_Structure.c ****         {
 547:Generated_Source\PSoC4/CapSense_Structure.c ****             /* Check offset for Flash Data Structure range */
 548:Generated_Source\PSoC4/CapSense_Structure.c ****             if (pData->offset >= sizeof(CapSense_dsFlash))
ARM GAS  C:\Users\JANUSD~1\AppData\Local\Temp\ccsiXrMH.s 			page 12


  79              		.loc 1 548 0
  80 003a 2B2D     		cmp	r5, #43
  81 003c 01D8     		bhi	.L10
 452:Generated_Source\PSoC4/CapSense_Structure.c **** 
  82              		.loc 1 452 0
  83 003e 0020     		movs	r0, #0
  84 0040 00E0     		b	.L4
  85              	.L10:
 549:Generated_Source\PSoC4/CapSense_Structure.c ****             {
 550:Generated_Source\PSoC4/CapSense_Structure.c ****                 result = CYRET_BAD_PARAM;
  86              		.loc 1 550 0
  87 0042 0120     		movs	r0, #1
  88              	.L4:
  89              	.LVL3:
 551:Generated_Source\PSoC4/CapSense_Structure.c ****             }
 552:Generated_Source\PSoC4/CapSense_Structure.c **** 
 553:Generated_Source\PSoC4/CapSense_Structure.c ****             /* Check if it is marked as Read Only */
 554:Generated_Source\PSoC4/CapSense_Structure.c ****             if (0u != pData->rw)
  90              		.loc 1 554 0
  91 0044 002A     		cmp	r2, #0
  92 0046 02D1     		bne	.L11
  93 0048 02E0     		b	.L3
  94              	.LVL4:
  95              	.L9:
 542:Generated_Source\PSoC4/CapSense_Structure.c ****             }
  96              		.loc 1 542 0
  97 004a 0120     		movs	r0, #1
  98 004c 00E0     		b	.L3
  99              	.LVL5:
 100              	.L11:
 555:Generated_Source\PSoC4/CapSense_Structure.c ****             {
 556:Generated_Source\PSoC4/CapSense_Structure.c ****                 result = CYRET_BAD_PARAM;
 101              		.loc 1 556 0
 102 004e 0120     		movs	r0, #1
 103              	.LVL6:
 104              	.L3:
 557:Generated_Source\PSoC4/CapSense_Structure.c ****             }
 558:Generated_Source\PSoC4/CapSense_Structure.c ****         }
 559:Generated_Source\PSoC4/CapSense_Structure.c ****     #endif /* #if (0u != CapSense_SELF_TEST_EN) */
 560:Generated_Source\PSoC4/CapSense_Structure.c **** 
 561:Generated_Source\PSoC4/CapSense_Structure.c ****     if (CYRET_SUCCESS == result)
 105              		.loc 1 561 0
 106 0050 0028     		cmp	r0, #0
 107 0052 11D1     		bne	.L5
 562:Generated_Source\PSoC4/CapSense_Structure.c ****     {
 563:Generated_Source\PSoC4/CapSense_Structure.c ****         /* Check parameter type, offset alignment */
 564:Generated_Source\PSoC4/CapSense_Structure.c ****         switch (pData->type)
 108              		.loc 1 564 0
 109 0054 022E     		cmp	r6, #2
 110 0056 04D0     		beq	.L6
 111 0058 032E     		cmp	r6, #3
 112 005a 05D0     		beq	.L7
 113 005c 012E     		cmp	r6, #1
 114 005e 06D1     		bne	.L15
 115 0060 0AE0     		b	.L5
 116              	.L6:
 565:Generated_Source\PSoC4/CapSense_Structure.c ****         {
ARM GAS  C:\Users\JANUSD~1\AppData\Local\Temp\ccsiXrMH.s 			page 13


 566:Generated_Source\PSoC4/CapSense_Structure.c ****         case DS_PARAM_TYPE_UINT16:
 567:Generated_Source\PSoC4/CapSense_Structure.c ****             if (0u != (pData->offset & UINT16_ALIGN_MASK))
 117              		.loc 1 567 0
 118 0062 EB07     		lsls	r3, r5, #31
 119 0064 05D4     		bmi	.L13
 120 0066 07E0     		b	.L5
 121              	.L7:
 568:Generated_Source\PSoC4/CapSense_Structure.c ****             {
 569:Generated_Source\PSoC4/CapSense_Structure.c ****                 result = CYRET_BAD_PARAM;
 570:Generated_Source\PSoC4/CapSense_Structure.c ****             }
 571:Generated_Source\PSoC4/CapSense_Structure.c ****             break;
 572:Generated_Source\PSoC4/CapSense_Structure.c **** 
 573:Generated_Source\PSoC4/CapSense_Structure.c ****         case DS_PARAM_TYPE_UINT32:
 574:Generated_Source\PSoC4/CapSense_Structure.c ****             if (0u != (pData->offset & UINT32_ALIGN_MASK))
 122              		.loc 1 574 0
 123 0068 AB07     		lsls	r3, r5, #30
 124 006a 04D1     		bne	.L14
 125 006c 04E0     		b	.L5
 126              	.L15:
 575:Generated_Source\PSoC4/CapSense_Structure.c ****             {
 576:Generated_Source\PSoC4/CapSense_Structure.c ****                 result = CYRET_BAD_PARAM;
 577:Generated_Source\PSoC4/CapSense_Structure.c ****             }
 578:Generated_Source\PSoC4/CapSense_Structure.c ****             break;
 579:Generated_Source\PSoC4/CapSense_Structure.c **** 
 580:Generated_Source\PSoC4/CapSense_Structure.c ****         case DS_PARAM_TYPE_UINT8:
 581:Generated_Source\PSoC4/CapSense_Structure.c ****             break;
 582:Generated_Source\PSoC4/CapSense_Structure.c **** 
 583:Generated_Source\PSoC4/CapSense_Structure.c ****         default:
 584:Generated_Source\PSoC4/CapSense_Structure.c ****             result = CYRET_BAD_PARAM;
 127              		.loc 1 584 0
 128 006e 0120     		movs	r0, #1
 129              	.LVL7:
 130 0070 02E0     		b	.L5
 131              	.LVL8:
 132              	.L13:
 569:Generated_Source\PSoC4/CapSense_Structure.c ****             }
 133              		.loc 1 569 0
 134 0072 0120     		movs	r0, #1
 135              	.LVL9:
 136 0074 00E0     		b	.L5
 137              	.LVL10:
 138              	.L14:
 576:Generated_Source\PSoC4/CapSense_Structure.c ****             }
 139              		.loc 1 576 0
 140 0076 0120     		movs	r0, #1
 141              	.LVL11:
 142              	.L5:
 585:Generated_Source\PSoC4/CapSense_Structure.c ****             break;
 586:Generated_Source\PSoC4/CapSense_Structure.c ****         }
 587:Generated_Source\PSoC4/CapSense_Structure.c ****     }
 588:Generated_Source\PSoC4/CapSense_Structure.c **** 
 589:Generated_Source\PSoC4/CapSense_Structure.c ****     return result;
 590:Generated_Source\PSoC4/CapSense_Structure.c **** }
 143              		.loc 1 590 0
 144              		@ sp needed
 145 0078 70BD     		pop	{r4, r5, r6, pc}
 146              		.cfi_endproc
ARM GAS  C:\Users\JANUSD~1\AppData\Local\Temp\ccsiXrMH.s 			page 14


 147              	.LFE3:
 148              		.size	DsParseParamId, .-DsParseParamId
 149 007a C046     		.section	.text.CapSense_DsInitialize,"ax",%progbits
 150              		.align	2
 151              		.global	CapSense_DsInitialize
 152              		.code	16
 153              		.thumb_func
 154              		.type	CapSense_DsInitialize, %function
 155              	CapSense_DsInitialize:
 156              	.LFB2:
 285:Generated_Source\PSoC4/CapSense_Structure.c ****     #if ((CapSense_ENABLE == CapSense_CSX_EN) || \
 157              		.loc 1 285 0
 158              		.cfi_startproc
 159              		@ args = 0, pretend = 0, frame = 0
 160              		@ frame_needed = 0, uses_anonymous_args = 0
 161 0000 10B5     		push	{r4, lr}
 162              		.cfi_def_cfa_offset 8
 163              		.cfi_offset 4, -8
 164              		.cfi_offset 14, -4
 306:Generated_Source\PSoC4/CapSense_Structure.c **** 
 165              		.loc 1 306 0
 166 0002 094C     		ldr	r4, .L17
 167 0004 6822     		movs	r2, #104
 168 0006 0021     		movs	r1, #0
 169 0008 2000     		movs	r0, r4
 170 000a FFF7FEFF 		bl	memset
 171              	.LVL12:
 309:Generated_Source\PSoC4/CapSense_Structure.c ****     CapSense_dsRam.deviceId = CapSense_DEVICE_ID;
 172              		.loc 1 309 0
 173 000e 074B     		ldr	r3, .L17+4
 174 0010 2380     		strh	r3, [r4]
 311:Generated_Source\PSoC4/CapSense_Structure.c **** 
 175              		.loc 1 311 0
 176 0012 074B     		ldr	r3, .L17+8
 177 0014 A380     		strh	r3, [r4, #4]
 317:Generated_Source\PSoC4/CapSense_Structure.c **** 
 178              		.loc 1 317 0
 179 0016 0423     		movs	r3, #4
 180 0018 2377     		strb	r3, [r4, #28]
 341:Generated_Source\PSoC4/CapSense_Structure.c **** 
 181              		.loc 1 341 0
 182 001a 2000     		movs	r0, r4
 183 001c 1E30     		adds	r0, r0, #30
 184 001e 1022     		movs	r2, #16
 185 0020 0449     		ldr	r1, .L17+12
 186 0022 FFF7FEFF 		bl	memcpy
 187              	.LVL13:
 411:Generated_Source\PSoC4/CapSense_Structure.c **** 
 188              		.loc 1 411 0
 189              		@ sp needed
 190 0026 10BD     		pop	{r4, pc}
 191              	.L18:
 192              		.align	2
 193              	.L17:
 194 0028 00000000 		.word	CapSense_dsRam
 195 002c E0500000 		.word	20704
 196 0030 70170000 		.word	6000
ARM GAS  C:\Users\JANUSD~1\AppData\Local\Temp\ccsiXrMH.s 			page 15


 197 0034 00000000 		.word	.LANCHOR0
 198              		.cfi_endproc
 199              	.LFE2:
 200              		.size	CapSense_DsInitialize, .-CapSense_DsInitialize
 201              		.section	.text.CapSense_GetParam,"ax",%progbits
 202              		.align	2
 203              		.global	CapSense_GetParam
 204              		.code	16
 205              		.thumb_func
 206              		.type	CapSense_GetParam, %function
 207              	CapSense_GetParam:
 208              	.LFB4:
 591:Generated_Source\PSoC4/CapSense_Structure.c **** 
 592:Generated_Source\PSoC4/CapSense_Structure.c **** /*******************************************************************************
 593:Generated_Source\PSoC4/CapSense_Structure.c **** * Function Name: CapSense_GetParam
 594:Generated_Source\PSoC4/CapSense_Structure.c **** ****************************************************************************//**
 595:Generated_Source\PSoC4/CapSense_Structure.c **** *
 596:Generated_Source\PSoC4/CapSense_Structure.c **** * \brief
 597:Generated_Source\PSoC4/CapSense_Structure.c **** *  Gets the specified parameter value from the \ref group_structures.
 598:Generated_Source\PSoC4/CapSense_Structure.c **** *
 599:Generated_Source\PSoC4/CapSense_Structure.c **** * \details
 600:Generated_Source\PSoC4/CapSense_Structure.c **** *  This function gets the value of the specified parameter by the paramId
 601:Generated_Source\PSoC4/CapSense_Structure.c **** *  argument. The paramId for each register is available in the
 602:Generated_Source\PSoC4/CapSense_Structure.c **** *  CapSense RegisterMap header file as
 603:Generated_Source\PSoC4/CapSense_Structure.c **** *  CapSense_<ParameterName>_PARAM_ID. The paramId is a special
 604:Generated_Source\PSoC4/CapSense_Structure.c **** *  enumerated value generated by the customizer. The format of paramId is as
 605:Generated_Source\PSoC4/CapSense_Structure.c **** *  follows:
 606:Generated_Source\PSoC4/CapSense_Structure.c **** *    1. [ byte 3 byte 2 byte 1 byte 0 ]
 607:Generated_Source\PSoC4/CapSense_Structure.c **** *    2. [ TTWFCCCC UIIIIIII MMMMMMMM LLLLLLLL ]
 608:Generated_Source\PSoC4/CapSense_Structure.c **** *    3. T - encodes the parameter type:
 609:Generated_Source\PSoC4/CapSense_Structure.c **** *      - 01b: uint8
 610:Generated_Source\PSoC4/CapSense_Structure.c **** *      - 10b: uint16
 611:Generated_Source\PSoC4/CapSense_Structure.c **** *      - 11b: uint32
 612:Generated_Source\PSoC4/CapSense_Structure.c **** *    4. W - indicates whether the parameter is writable:
 613:Generated_Source\PSoC4/CapSense_Structure.c **** *      - 0: ReadOnly
 614:Generated_Source\PSoC4/CapSense_Structure.c **** *      - 1: Read/Write
 615:Generated_Source\PSoC4/CapSense_Structure.c **** *    5. C - 4 bit CRC (X^3 + 1) of the whole paramId word, the C bits are
 616:Generated_Source\PSoC4/CapSense_Structure.c **** *       filled with 0s when the CRC is calculated.
 617:Generated_Source\PSoC4/CapSense_Structure.c **** *    6. U - indicates if the parameter affects the RAM Widget Object CRC.
 618:Generated_Source\PSoC4/CapSense_Structure.c **** *    7. I - specifies that the widgetId parameter belongs to
 619:Generated_Source\PSoC4/CapSense_Structure.c **** *    8. M,L - the parameter offset MSB and LSB accordingly in:
 620:Generated_Source\PSoC4/CapSense_Structure.c **** *      - Flash Data Structure if W bit is 0.
 621:Generated_Source\PSoC4/CapSense_Structure.c **** *      - RAM Data Structure if W bit is 1.
 622:Generated_Source\PSoC4/CapSense_Structure.c **** *
 623:Generated_Source\PSoC4/CapSense_Structure.c **** *  Refer to the \ref group_structures section for details of the data structure
 624:Generated_Source\PSoC4/CapSense_Structure.c **** *  organization and examples of its register access.
 625:Generated_Source\PSoC4/CapSense_Structure.c **** *
 626:Generated_Source\PSoC4/CapSense_Structure.c **** * \param paramId
 627:Generated_Source\PSoC4/CapSense_Structure.c **** *  Specifies the ID of parameter to get its value.
 628:Generated_Source\PSoC4/CapSense_Structure.c **** *  A macro for the parameter ID can be found in the CapSense RegisterMap header
 629:Generated_Source\PSoC4/CapSense_Structure.c **** *  file defined as CapSense_<ParameterName>_PARAM_ID.
 630:Generated_Source\PSoC4/CapSense_Structure.c **** *
 631:Generated_Source\PSoC4/CapSense_Structure.c **** * \param value
 632:Generated_Source\PSoC4/CapSense_Structure.c **** *  The pointer to a variable to be updated with the obtained value.
 633:Generated_Source\PSoC4/CapSense_Structure.c **** *
 634:Generated_Source\PSoC4/CapSense_Structure.c **** * \return
 635:Generated_Source\PSoC4/CapSense_Structure.c **** *  Returns the status of the operation:
ARM GAS  C:\Users\JANUSD~1\AppData\Local\Temp\ccsiXrMH.s 			page 16


 636:Generated_Source\PSoC4/CapSense_Structure.c **** *    - CYRET_SUCCESS - The operation is successfully completed.
 637:Generated_Source\PSoC4/CapSense_Structure.c **** *    - CYRET_BAD_PARAM - The input parameter is invalid.
 638:Generated_Source\PSoC4/CapSense_Structure.c **** *
 639:Generated_Source\PSoC4/CapSense_Structure.c **** *******************************************************************************/
 640:Generated_Source\PSoC4/CapSense_Structure.c **** cystatus CapSense_GetParam(uint32 paramId, uint32 *value)
 641:Generated_Source\PSoC4/CapSense_Structure.c **** {
 209              		.loc 1 641 0
 210              		.cfi_startproc
 211              		@ args = 0, pretend = 0, frame = 8
 212              		@ frame_needed = 0, uses_anonymous_args = 0
 213              	.LVL14:
 214 0000 30B5     		push	{r4, r5, lr}
 215              		.cfi_def_cfa_offset 12
 216              		.cfi_offset 4, -12
 217              		.cfi_offset 5, -8
 218              		.cfi_offset 14, -4
 219 0002 83B0     		sub	sp, sp, #12
 220              		.cfi_def_cfa_offset 24
 221 0004 0D00     		movs	r5, r1
 642:Generated_Source\PSoC4/CapSense_Structure.c ****     PARAM_ID_STRUCT pData;
 643:Generated_Source\PSoC4/CapSense_Structure.c ****     cystatus result;
 644:Generated_Source\PSoC4/CapSense_Structure.c **** 
 645:Generated_Source\PSoC4/CapSense_Structure.c ****     union
 646:Generated_Source\PSoC4/CapSense_Structure.c ****     {
 647:Generated_Source\PSoC4/CapSense_Structure.c ****         volatile void   const * ptr;
 648:Generated_Source\PSoC4/CapSense_Structure.c ****         volatile uint8  const * ptrUint8;
 649:Generated_Source\PSoC4/CapSense_Structure.c ****         volatile uint16 const * ptrUint16;
 650:Generated_Source\PSoC4/CapSense_Structure.c ****         volatile uint32 const * ptrUint32;
 651:Generated_Source\PSoC4/CapSense_Structure.c ****     } ptrData;
 652:Generated_Source\PSoC4/CapSense_Structure.c **** 
 653:Generated_Source\PSoC4/CapSense_Structure.c ****     result = DsParseParamId(paramId, &pData);
 222              		.loc 1 653 0
 223 0006 6946     		mov	r1, sp
 224              	.LVL15:
 225 0008 FFF7FEFF 		bl	DsParseParamId
 226              	.LVL16:
 227 000c 041E     		subs	r4, r0, #0
 228              	.LVL17:
 654:Generated_Source\PSoC4/CapSense_Structure.c **** 
 655:Generated_Source\PSoC4/CapSense_Structure.c ****     /* Parse and validate paramId */
 656:Generated_Source\PSoC4/CapSense_Structure.c ****     if (CYRET_SUCCESS == result)
 229              		.loc 1 656 0
 230 000e 1FD1     		bne	.L20
 657:Generated_Source\PSoC4/CapSense_Structure.c ****     {
 658:Generated_Source\PSoC4/CapSense_Structure.c ****         /* Get base address of parameter */
 659:Generated_Source\PSoC4/CapSense_Structure.c ****         if (0u == pData.flash)
 231              		.loc 1 659 0
 232 0010 6B46     		mov	r3, sp
 233 0012 5B79     		ldrb	r3, [r3, #5]
 234 0014 002B     		cmp	r3, #0
 235 0016 01D1     		bne	.L21
 660:Generated_Source\PSoC4/CapSense_Structure.c ****         {
 661:Generated_Source\PSoC4/CapSense_Structure.c ****             ptrData.ptr = &CapSense_dsRam;
 236              		.loc 1 661 0
 237 0018 0F4A     		ldr	r2, .L26
 238              	.LVL18:
 239 001a 02E0     		b	.L22
ARM GAS  C:\Users\JANUSD~1\AppData\Local\Temp\ccsiXrMH.s 			page 17


 240              	.L21:
 662:Generated_Source\PSoC4/CapSense_Structure.c ****         }
 663:Generated_Source\PSoC4/CapSense_Structure.c ****         else
 664:Generated_Source\PSoC4/CapSense_Structure.c ****         {
 665:Generated_Source\PSoC4/CapSense_Structure.c ****             ptrData.ptr = &CapSense_dsFlash;
 241              		.loc 1 665 0
 242 001c 0F4B     		ldr	r3, .L26+4
 243 001e 1033     		adds	r3, r3, #16
 244 0020 1A00     		movs	r2, r3
 245              	.L22:
 666:Generated_Source\PSoC4/CapSense_Structure.c ****         }
 667:Generated_Source\PSoC4/CapSense_Structure.c **** 
 668:Generated_Source\PSoC4/CapSense_Structure.c ****         /* Add offset to base address */
 669:Generated_Source\PSoC4/CapSense_Structure.c ****         ptrData.ptrUint8 += pData.offset;
 246              		.loc 1 669 0
 247 0022 6B46     		mov	r3, sp
 248 0024 1B88     		ldrh	r3, [r3]
 249              	.LVL19:
 250 0026 D318     		adds	r3, r2, r3
 670:Generated_Source\PSoC4/CapSense_Structure.c **** 
 671:Generated_Source\PSoC4/CapSense_Structure.c ****         /* Read data */
 672:Generated_Source\PSoC4/CapSense_Structure.c ****         if (DS_PARAM_TYPE_UINT8 == pData.type)
 251              		.loc 1 672 0
 252 0028 6A46     		mov	r2, sp
 253              	.LVL20:
 254 002a D279     		ldrb	r2, [r2, #7]
 255 002c 012A     		cmp	r2, #1
 256 002e 02D1     		bne	.L23
 673:Generated_Source\PSoC4/CapSense_Structure.c ****         {
 674:Generated_Source\PSoC4/CapSense_Structure.c ****             *value = (uint32) (*ptrData.ptrUint8);
 257              		.loc 1 674 0
 258 0030 1B78     		ldrb	r3, [r3]
 259 0032 2B60     		str	r3, [r5]
 260 0034 0CE0     		b	.L20
 261              	.L23:
 675:Generated_Source\PSoC4/CapSense_Structure.c ****         }
 676:Generated_Source\PSoC4/CapSense_Structure.c ****         else if (DS_PARAM_TYPE_UINT16 == pData.type)
 262              		.loc 1 676 0
 263 0036 022A     		cmp	r2, #2
 264 0038 02D1     		bne	.L24
 677:Generated_Source\PSoC4/CapSense_Structure.c ****         {
 678:Generated_Source\PSoC4/CapSense_Structure.c ****             *value = (uint32) (*ptrData.ptrUint16);
 265              		.loc 1 678 0
 266 003a 1B88     		ldrh	r3, [r3]
 267 003c 2B60     		str	r3, [r5]
 268 003e 07E0     		b	.L20
 269              	.L24:
 679:Generated_Source\PSoC4/CapSense_Structure.c ****         }
 680:Generated_Source\PSoC4/CapSense_Structure.c ****         else if (DS_PARAM_TYPE_UINT32 == pData.type)
 270              		.loc 1 680 0
 271 0040 032A     		cmp	r2, #3
 272 0042 02D1     		bne	.L25
 681:Generated_Source\PSoC4/CapSense_Structure.c ****         {
 682:Generated_Source\PSoC4/CapSense_Structure.c ****             *value = *ptrData.ptrUint32;
 273              		.loc 1 682 0
 274 0044 1B68     		ldr	r3, [r3]
 275 0046 2B60     		str	r3, [r5]
ARM GAS  C:\Users\JANUSD~1\AppData\Local\Temp\ccsiXrMH.s 			page 18


 276 0048 02E0     		b	.L20
 277              	.L25:
 683:Generated_Source\PSoC4/CapSense_Structure.c ****         }
 684:Generated_Source\PSoC4/CapSense_Structure.c ****         else
 685:Generated_Source\PSoC4/CapSense_Structure.c ****         {
 686:Generated_Source\PSoC4/CapSense_Structure.c ****             /* Parameter comes here already validated. */
 687:Generated_Source\PSoC4/CapSense_Structure.c ****             CYASSERT(0u);
 278              		.loc 1 687 0 discriminator 1
 279 004a 0020     		movs	r0, #0
 280              	.LVL21:
 281 004c FFF7FEFF 		bl	CyHalt
 282              	.LVL22:
 283              	.L20:
 688:Generated_Source\PSoC4/CapSense_Structure.c ****         }
 689:Generated_Source\PSoC4/CapSense_Structure.c ****     }
 690:Generated_Source\PSoC4/CapSense_Structure.c **** 
 691:Generated_Source\PSoC4/CapSense_Structure.c ****     return result;
 692:Generated_Source\PSoC4/CapSense_Structure.c **** }
 284              		.loc 1 692 0
 285 0050 2000     		movs	r0, r4
 286 0052 03B0     		add	sp, sp, #12
 287              		@ sp needed
 288              	.LVL23:
 289              	.LVL24:
 290 0054 30BD     		pop	{r4, r5, pc}
 291              	.L27:
 292 0056 C046     		.align	2
 293              	.L26:
 294 0058 00000000 		.word	CapSense_dsRam
 295 005c 00000000 		.word	.LANCHOR0
 296              		.cfi_endproc
 297              	.LFE4:
 298              		.size	CapSense_GetParam, .-CapSense_GetParam
 299              		.section	.text.CapSense_SetParam,"ax",%progbits
 300              		.align	2
 301              		.global	CapSense_SetParam
 302              		.code	16
 303              		.thumb_func
 304              		.type	CapSense_SetParam, %function
 305              	CapSense_SetParam:
 306              	.LFB5:
 693:Generated_Source\PSoC4/CapSense_Structure.c **** 
 694:Generated_Source\PSoC4/CapSense_Structure.c **** 
 695:Generated_Source\PSoC4/CapSense_Structure.c **** /*******************************************************************************
 696:Generated_Source\PSoC4/CapSense_Structure.c **** * Function Name: CapSense_SetParam
 697:Generated_Source\PSoC4/CapSense_Structure.c **** ****************************************************************************//**
 698:Generated_Source\PSoC4/CapSense_Structure.c **** *
 699:Generated_Source\PSoC4/CapSense_Structure.c **** * \brief
 700:Generated_Source\PSoC4/CapSense_Structure.c **** *  Sets a new value for the specified parameter in the \ref group_structures.
 701:Generated_Source\PSoC4/CapSense_Structure.c **** *
 702:Generated_Source\PSoC4/CapSense_Structure.c **** * \details
 703:Generated_Source\PSoC4/CapSense_Structure.c **** *  This function sets the value of the specified parameter by the paramId
 704:Generated_Source\PSoC4/CapSense_Structure.c **** *  argument. The paramId for each register is available in the
 705:Generated_Source\PSoC4/CapSense_Structure.c **** *  CapSense RegisterMap header file as
 706:Generated_Source\PSoC4/CapSense_Structure.c **** *  CapSense_<ParameterName>_PARAM_ID. The paramId is a special
 707:Generated_Source\PSoC4/CapSense_Structure.c **** *  enumerated value generated by the customizer. The format of paramId is as
 708:Generated_Source\PSoC4/CapSense_Structure.c **** *  follows:
ARM GAS  C:\Users\JANUSD~1\AppData\Local\Temp\ccsiXrMH.s 			page 19


 709:Generated_Source\PSoC4/CapSense_Structure.c **** *    1. [ byte 3 byte 2 byte 1 byte 0 ]
 710:Generated_Source\PSoC4/CapSense_Structure.c **** *    2. [ TTWFCCCC UIIIIIII MMMMMMMM LLLLLLLL ]
 711:Generated_Source\PSoC4/CapSense_Structure.c **** *    3. T - encodes the parameter type:
 712:Generated_Source\PSoC4/CapSense_Structure.c **** *      - 01b: uint8
 713:Generated_Source\PSoC4/CapSense_Structure.c **** *      - 10b: uint16
 714:Generated_Source\PSoC4/CapSense_Structure.c **** *      - 11b: uint32
 715:Generated_Source\PSoC4/CapSense_Structure.c **** *    4. W - indicates whether the parameter is writable:
 716:Generated_Source\PSoC4/CapSense_Structure.c **** *      - 0: ReadOnly
 717:Generated_Source\PSoC4/CapSense_Structure.c **** *      - 1: Read/Write
 718:Generated_Source\PSoC4/CapSense_Structure.c **** *    5. C - 4 bit CRC (X^3 + 1) of the whole paramId word, the C bits are
 719:Generated_Source\PSoC4/CapSense_Structure.c **** *       filled with 0s when the CRC is calculated.
 720:Generated_Source\PSoC4/CapSense_Structure.c **** *    6. U - indicates if the parameter affects the RAM Widget Object CRC.
 721:Generated_Source\PSoC4/CapSense_Structure.c **** *    7. I - specifies that the widgetId parameter belongs to
 722:Generated_Source\PSoC4/CapSense_Structure.c **** *    8. M,L - the parameter offset MSB and LSB accordingly in:
 723:Generated_Source\PSoC4/CapSense_Structure.c **** *      - Flash Data Structure if W bit is 0.
 724:Generated_Source\PSoC4/CapSense_Structure.c **** *      - RAM Data Structure if W bit is 1.
 725:Generated_Source\PSoC4/CapSense_Structure.c **** *
 726:Generated_Source\PSoC4/CapSense_Structure.c **** *  Refer to the \ref group_structures section for details of the data structure
 727:Generated_Source\PSoC4/CapSense_Structure.c **** *  organization and examples of its register access.
 728:Generated_Source\PSoC4/CapSense_Structure.c **** *
 729:Generated_Source\PSoC4/CapSense_Structure.c **** *  This function writes specified value into the desired register without
 730:Generated_Source\PSoC4/CapSense_Structure.c **** *  other registers update. It is application layer responsibility to keep all
 731:Generated_Source\PSoC4/CapSense_Structure.c **** *  the data structure registers aligned. Repeated call of
 732:Generated_Source\PSoC4/CapSense_Structure.c **** *  CapSense_Start() function helps aligning dependent register values.
 733:Generated_Source\PSoC4/CapSense_Structure.c **** *
 734:Generated_Source\PSoC4/CapSense_Structure.c **** * \param paramId
 735:Generated_Source\PSoC4/CapSense_Structure.c **** *  Specifies the ID of parameter to set its value.
 736:Generated_Source\PSoC4/CapSense_Structure.c **** *  A macro for the parameter ID can be found in the CapSense RegisterMap header
 737:Generated_Source\PSoC4/CapSense_Structure.c **** *  file defined as CapSense_<ParameterName>_PARAM_ID.
 738:Generated_Source\PSoC4/CapSense_Structure.c **** 
 739:Generated_Source\PSoC4/CapSense_Structure.c **** * \param value
 740:Generated_Source\PSoC4/CapSense_Structure.c **** *  Specifies the new parameter's value.
 741:Generated_Source\PSoC4/CapSense_Structure.c **** *
 742:Generated_Source\PSoC4/CapSense_Structure.c **** * \return
 743:Generated_Source\PSoC4/CapSense_Structure.c **** *  Returns the status of the operation:
 744:Generated_Source\PSoC4/CapSense_Structure.c **** *    - CYRET_SUCCESS - The operation is successfully completed.
 745:Generated_Source\PSoC4/CapSense_Structure.c **** *    - CYRET_BAD_PARAM - The input parameter is invalid.
 746:Generated_Source\PSoC4/CapSense_Structure.c **** *
 747:Generated_Source\PSoC4/CapSense_Structure.c **** *******************************************************************************/
 748:Generated_Source\PSoC4/CapSense_Structure.c **** cystatus CapSense_SetParam(uint32 paramId, uint32 value)
 749:Generated_Source\PSoC4/CapSense_Structure.c **** {
 307              		.loc 1 749 0
 308              		.cfi_startproc
 309              		@ args = 0, pretend = 0, frame = 8
 310              		@ frame_needed = 0, uses_anonymous_args = 0
 311              	.LVL25:
 312 0000 30B5     		push	{r4, r5, lr}
 313              		.cfi_def_cfa_offset 12
 314              		.cfi_offset 4, -12
 315              		.cfi_offset 5, -8
 316              		.cfi_offset 14, -4
 317 0002 83B0     		sub	sp, sp, #12
 318              		.cfi_def_cfa_offset 24
 319 0004 0D00     		movs	r5, r1
 750:Generated_Source\PSoC4/CapSense_Structure.c ****     cystatus result;
 751:Generated_Source\PSoC4/CapSense_Structure.c ****     PARAM_ID_STRUCT pData;
 752:Generated_Source\PSoC4/CapSense_Structure.c **** 
ARM GAS  C:\Users\JANUSD~1\AppData\Local\Temp\ccsiXrMH.s 			page 20


 753:Generated_Source\PSoC4/CapSense_Structure.c ****     union
 754:Generated_Source\PSoC4/CapSense_Structure.c ****     {
 755:Generated_Source\PSoC4/CapSense_Structure.c ****         volatile void   * ptr;
 756:Generated_Source\PSoC4/CapSense_Structure.c ****         volatile uint8  * ptrUint8;
 757:Generated_Source\PSoC4/CapSense_Structure.c ****         volatile uint16 * ptrUint16;
 758:Generated_Source\PSoC4/CapSense_Structure.c ****         volatile uint32 * ptrUint32;
 759:Generated_Source\PSoC4/CapSense_Structure.c ****     } ptrData;
 760:Generated_Source\PSoC4/CapSense_Structure.c **** 
 761:Generated_Source\PSoC4/CapSense_Structure.c ****     result = DsParseParamId(paramId, &pData);
 320              		.loc 1 761 0
 321 0006 6946     		mov	r1, sp
 322              	.LVL26:
 323 0008 FFF7FEFF 		bl	DsParseParamId
 324              	.LVL27:
 325 000c 041E     		subs	r4, r0, #0
 326              	.LVL28:
 762:Generated_Source\PSoC4/CapSense_Structure.c **** 
 763:Generated_Source\PSoC4/CapSense_Structure.c ****     /* verify if parameter is writable */
 764:Generated_Source\PSoC4/CapSense_Structure.c ****     if (CYRET_SUCCESS == result)
 327              		.loc 1 764 0
 328 000e 04D1     		bne	.L29
 765:Generated_Source\PSoC4/CapSense_Structure.c ****     {
 766:Generated_Source\PSoC4/CapSense_Structure.c ****         if (0u == pData.rw)
 329              		.loc 1 766 0
 330 0010 6B46     		mov	r3, sp
 331 0012 9B79     		ldrb	r3, [r3, #6]
 332 0014 002B     		cmp	r3, #0
 333 0016 00D1     		bne	.L29
 767:Generated_Source\PSoC4/CapSense_Structure.c ****         {
 768:Generated_Source\PSoC4/CapSense_Structure.c ****             result = CYRET_BAD_PARAM;
 334              		.loc 1 768 0
 335 0018 0134     		adds	r4, r4, #1
 336              	.L29:
 337              	.LVL29:
 769:Generated_Source\PSoC4/CapSense_Structure.c ****         }
 770:Generated_Source\PSoC4/CapSense_Structure.c ****     }
 771:Generated_Source\PSoC4/CapSense_Structure.c **** 
 772:Generated_Source\PSoC4/CapSense_Structure.c ****     /* Parse and validate paramId */
 773:Generated_Source\PSoC4/CapSense_Structure.c ****     if (CYRET_SUCCESS == result)
 338              		.loc 1 773 0
 339 001a 002C     		cmp	r4, #0
 340 001c 16D1     		bne	.L30
 774:Generated_Source\PSoC4/CapSense_Structure.c ****     {
 775:Generated_Source\PSoC4/CapSense_Structure.c ****         /* Get base address of parameter */
 776:Generated_Source\PSoC4/CapSense_Structure.c ****         ptrData.ptr = &CapSense_dsRam;
 777:Generated_Source\PSoC4/CapSense_Structure.c **** 
 778:Generated_Source\PSoC4/CapSense_Structure.c ****         /* Add offset to base address */
 779:Generated_Source\PSoC4/CapSense_Structure.c ****         ptrData.ptrUint8 += pData.offset;
 341              		.loc 1 779 0
 342 001e 6B46     		mov	r3, sp
 343 0020 1A88     		ldrh	r2, [r3]
 344 0022 0C4B     		ldr	r3, .L35
 345 0024 D318     		adds	r3, r2, r3
 780:Generated_Source\PSoC4/CapSense_Structure.c **** 
 781:Generated_Source\PSoC4/CapSense_Structure.c ****         /* Write data */
 782:Generated_Source\PSoC4/CapSense_Structure.c ****         if (DS_PARAM_TYPE_UINT8 == pData.type)
 346              		.loc 1 782 0
ARM GAS  C:\Users\JANUSD~1\AppData\Local\Temp\ccsiXrMH.s 			page 21


 347 0026 6A46     		mov	r2, sp
 348 0028 D279     		ldrb	r2, [r2, #7]
 349 002a 012A     		cmp	r2, #1
 350 002c 02D1     		bne	.L31
 783:Generated_Source\PSoC4/CapSense_Structure.c ****         {
 784:Generated_Source\PSoC4/CapSense_Structure.c ****             *ptrData.ptrUint8 = LO8(value);
 351              		.loc 1 784 0
 352 002e EDB2     		uxtb	r5, r5
 353              	.LVL30:
 354 0030 1D70     		strb	r5, [r3]
 355 0032 0BE0     		b	.L30
 356              	.LVL31:
 357              	.L31:
 785:Generated_Source\PSoC4/CapSense_Structure.c ****         }
 786:Generated_Source\PSoC4/CapSense_Structure.c ****         else if (DS_PARAM_TYPE_UINT16 == pData.type)
 358              		.loc 1 786 0
 359 0034 022A     		cmp	r2, #2
 360 0036 02D1     		bne	.L32
 787:Generated_Source\PSoC4/CapSense_Structure.c ****         {
 788:Generated_Source\PSoC4/CapSense_Structure.c ****             *ptrData.ptrUint16 = LO16(value);
 361              		.loc 1 788 0
 362 0038 ADB2     		uxth	r5, r5
 363              	.LVL32:
 364 003a 1D80     		strh	r5, [r3]
 365 003c 06E0     		b	.L30
 366              	.LVL33:
 367              	.L32:
 789:Generated_Source\PSoC4/CapSense_Structure.c ****         }
 790:Generated_Source\PSoC4/CapSense_Structure.c ****         else if (DS_PARAM_TYPE_UINT32 == pData.type)
 368              		.loc 1 790 0
 369 003e 032A     		cmp	r2, #3
 370 0040 01D1     		bne	.L33
 791:Generated_Source\PSoC4/CapSense_Structure.c ****         {
 792:Generated_Source\PSoC4/CapSense_Structure.c ****             *ptrData.ptrUint32 = value;
 371              		.loc 1 792 0
 372 0042 1D60     		str	r5, [r3]
 373 0044 02E0     		b	.L30
 374              	.L33:
 793:Generated_Source\PSoC4/CapSense_Structure.c ****         }
 794:Generated_Source\PSoC4/CapSense_Structure.c ****         else
 795:Generated_Source\PSoC4/CapSense_Structure.c ****         {
 796:Generated_Source\PSoC4/CapSense_Structure.c ****             /* Parameter comes here already validated. */
 797:Generated_Source\PSoC4/CapSense_Structure.c ****             CYASSERT(0u);
 375              		.loc 1 797 0 discriminator 1
 376 0046 0020     		movs	r0, #0
 377 0048 FFF7FEFF 		bl	CyHalt
 378              	.LVL34:
 379              	.L30:
 798:Generated_Source\PSoC4/CapSense_Structure.c ****         }
 799:Generated_Source\PSoC4/CapSense_Structure.c **** 
 800:Generated_Source\PSoC4/CapSense_Structure.c ****         #if (CapSense_ENABLE == (CapSense_TST_WDGT_CRC_EN || CapSense_TST_GLOBAL_CRC_EN))
 801:Generated_Source\PSoC4/CapSense_Structure.c ****             /* Update widget or global CRC if self-test is enabled and parameter affects it */
 802:Generated_Source\PSoC4/CapSense_Structure.c ****             if (0u != pData.affectsCrc)
 803:Generated_Source\PSoC4/CapSense_Structure.c ****             {
 804:Generated_Source\PSoC4/CapSense_Structure.c ****                 if ((ptrData.ptrUint16 >= &CapSense_dsRam.csd0Config) &&
 805:Generated_Source\PSoC4/CapSense_Structure.c ****                     (ptrData.ptrUint16 <  &CapSense_dsRam.glbCrc))
 806:Generated_Source\PSoC4/CapSense_Structure.c ****                 {
ARM GAS  C:\Users\JANUSD~1\AppData\Local\Temp\ccsiXrMH.s 			page 22


 807:Generated_Source\PSoC4/CapSense_Structure.c **** 
 808:Generated_Source\PSoC4/CapSense_Structure.c ****                     #if (CapSense_ENABLE == CapSense_TST_GLOBAL_CRC_EN)
 809:Generated_Source\PSoC4/CapSense_Structure.c ****                         CapSense_DsUpdateGlobalCrc();
 810:Generated_Source\PSoC4/CapSense_Structure.c ****                     #endif /* (CapSense_ENABLE == CapSense_TST_GLOBAL_CRC_EN) */
 811:Generated_Source\PSoC4/CapSense_Structure.c **** 
 812:Generated_Source\PSoC4/CapSense_Structure.c ****                 }
 813:Generated_Source\PSoC4/CapSense_Structure.c ****                 else
 814:Generated_Source\PSoC4/CapSense_Structure.c ****                 {
 815:Generated_Source\PSoC4/CapSense_Structure.c ****                     #if (CapSense_ENABLE == CapSense_TST_WDGT_CRC_EN)
 816:Generated_Source\PSoC4/CapSense_Structure.c ****                         CapSense_DsUpdateWidgetCrc((uint32)pData.widgetId);
 817:Generated_Source\PSoC4/CapSense_Structure.c ****                     #endif /* (CapSense_ENABLE == CapSense_TST_WDGT_CRC_EN) */
 818:Generated_Source\PSoC4/CapSense_Structure.c ****                 }
 819:Generated_Source\PSoC4/CapSense_Structure.c ****             }
 820:Generated_Source\PSoC4/CapSense_Structure.c ****         #endif /* (CapSense_ENABLE == (CapSense_TST_WDGT_CRC_EN || CapSense_TST_GLOBAL_CRC_EN)) */
 821:Generated_Source\PSoC4/CapSense_Structure.c ****     }
 822:Generated_Source\PSoC4/CapSense_Structure.c **** 
 823:Generated_Source\PSoC4/CapSense_Structure.c ****     return result;
 824:Generated_Source\PSoC4/CapSense_Structure.c **** }
 380              		.loc 1 824 0
 381 004c 2000     		movs	r0, r4
 382 004e 03B0     		add	sp, sp, #12
 383              		@ sp needed
 384              	.LVL35:
 385 0050 30BD     		pop	{r4, r5, pc}
 386              	.L36:
 387 0052 C046     		.align	2
 388              	.L35:
 389 0054 00000000 		.word	CapSense_dsRam
 390              		.cfi_endproc
 391              	.LFE5:
 392              		.size	CapSense_SetParam, .-CapSense_SetParam
 393              		.section	.text.CapSense_IsAnyWidgetActive,"ax",%progbits
 394              		.align	2
 395              		.global	CapSense_IsAnyWidgetActive
 396              		.code	16
 397              		.thumb_func
 398              		.type	CapSense_IsAnyWidgetActive, %function
 399              	CapSense_IsAnyWidgetActive:
 400              	.LFB6:
 825:Generated_Source\PSoC4/CapSense_Structure.c **** 
 826:Generated_Source\PSoC4/CapSense_Structure.c **** /*******************************************************************************
 827:Generated_Source\PSoC4/CapSense_Structure.c **** * Function Name: CapSense_IsAnyWidgetActive
 828:Generated_Source\PSoC4/CapSense_Structure.c **** ****************************************************************************//**
 829:Generated_Source\PSoC4/CapSense_Structure.c **** *
 830:Generated_Source\PSoC4/CapSense_Structure.c **** * \brief
 831:Generated_Source\PSoC4/CapSense_Structure.c **** *  Reports if any widget has detected a touch.
 832:Generated_Source\PSoC4/CapSense_Structure.c **** *
 833:Generated_Source\PSoC4/CapSense_Structure.c **** * \details
 834:Generated_Source\PSoC4/CapSense_Structure.c **** *  This function reports if any widget has detected a touch or not by extracting
 835:Generated_Source\PSoC4/CapSense_Structure.c **** *  information from the wdgtStatus registers
 836:Generated_Source\PSoC4/CapSense_Structure.c **** *  (CapSense_WDGT_STATUS<X>_VALUE). This function does not process a
 837:Generated_Source\PSoC4/CapSense_Structure.c **** *  widget but extracts processed results from the \ref group_structures.
 838:Generated_Source\PSoC4/CapSense_Structure.c **** *
 839:Generated_Source\PSoC4/CapSense_Structure.c **** * \return
 840:Generated_Source\PSoC4/CapSense_Structure.c **** *   Returns the touch detection status of all the widgets:
 841:Generated_Source\PSoC4/CapSense_Structure.c **** *     - Zero - No touch is detected in all the widgets or sensors.
 842:Generated_Source\PSoC4/CapSense_Structure.c **** *     - Non-zero - At least one widget or sensor detected a touch.
ARM GAS  C:\Users\JANUSD~1\AppData\Local\Temp\ccsiXrMH.s 			page 23


 843:Generated_Source\PSoC4/CapSense_Structure.c **** *
 844:Generated_Source\PSoC4/CapSense_Structure.c **** *******************************************************************************/
 845:Generated_Source\PSoC4/CapSense_Structure.c **** uint32 CapSense_IsAnyWidgetActive(void)
 846:Generated_Source\PSoC4/CapSense_Structure.c **** {
 401              		.loc 1 846 0
 402              		.cfi_startproc
 403              		@ args = 0, pretend = 0, frame = 0
 404              		@ frame_needed = 0, uses_anonymous_args = 0
 405              		@ link register save eliminated.
 406              	.LVL36:
 847:Generated_Source\PSoC4/CapSense_Structure.c ****     uint32 result = 0Lu;
 848:Generated_Source\PSoC4/CapSense_Structure.c ****     uint32 wdWord;
 849:Generated_Source\PSoC4/CapSense_Structure.c **** 
 850:Generated_Source\PSoC4/CapSense_Structure.c ****     for (wdWord = CapSense_WDGT_STATUS_WORDS; wdWord-- > 0u;)
 407              		.loc 1 850 0
 408 0000 0123     		movs	r3, #1
 847:Generated_Source\PSoC4/CapSense_Structure.c ****     uint32 result = 0Lu;
 409              		.loc 1 847 0
 410 0002 0020     		movs	r0, #0
 411              		.loc 1 850 0
 412 0004 06E0     		b	.L38
 413              	.LVL37:
 414              	.L39:
 851:Generated_Source\PSoC4/CapSense_Structure.c ****     {
 852:Generated_Source\PSoC4/CapSense_Structure.c ****         result |= CapSense_dsRam.wdgtStatus[wdWord];
 415              		.loc 1 852 0
 416 0006 131D     		adds	r3, r2, #4
 417 0008 9B00     		lsls	r3, r3, #2
 418 000a 0449     		ldr	r1, .L40
 419 000c CB18     		adds	r3, r1, r3
 420 000e 5B68     		ldr	r3, [r3, #4]
 421 0010 1843     		orrs	r0, r3
 422              	.LVL38:
 850:Generated_Source\PSoC4/CapSense_Structure.c ****     {
 423              		.loc 1 850 0
 424 0012 1300     		movs	r3, r2
 425              	.LVL39:
 426              	.L38:
 850:Generated_Source\PSoC4/CapSense_Structure.c ****     {
 427              		.loc 1 850 0 is_stmt 0 discriminator 1
 428 0014 5A1E     		subs	r2, r3, #1
 429              	.LVL40:
 430 0016 002B     		cmp	r3, #0
 431 0018 F5D1     		bne	.L39
 853:Generated_Source\PSoC4/CapSense_Structure.c ****     }
 854:Generated_Source\PSoC4/CapSense_Structure.c **** 
 855:Generated_Source\PSoC4/CapSense_Structure.c ****     return result;
 856:Generated_Source\PSoC4/CapSense_Structure.c **** }
 432              		.loc 1 856 0 is_stmt 1
 433              		@ sp needed
 434 001a 7047     		bx	lr
 435              	.L41:
 436              		.align	2
 437              	.L40:
 438 001c 00000000 		.word	CapSense_dsRam
 439              		.cfi_endproc
 440              	.LFE6:
ARM GAS  C:\Users\JANUSD~1\AppData\Local\Temp\ccsiXrMH.s 			page 24


 441              		.size	CapSense_IsAnyWidgetActive, .-CapSense_IsAnyWidgetActive
 442              		.section	.text.CapSense_IsWidgetActive,"ax",%progbits
 443              		.align	2
 444              		.global	CapSense_IsWidgetActive
 445              		.code	16
 446              		.thumb_func
 447              		.type	CapSense_IsWidgetActive, %function
 448              	CapSense_IsWidgetActive:
 449              	.LFB7:
 857:Generated_Source\PSoC4/CapSense_Structure.c **** 
 858:Generated_Source\PSoC4/CapSense_Structure.c **** 
 859:Generated_Source\PSoC4/CapSense_Structure.c **** /*******************************************************************************
 860:Generated_Source\PSoC4/CapSense_Structure.c **** * Function Name: CapSense_IsWidgetActive
 861:Generated_Source\PSoC4/CapSense_Structure.c **** ****************************************************************************//**
 862:Generated_Source\PSoC4/CapSense_Structure.c **** *
 863:Generated_Source\PSoC4/CapSense_Structure.c **** * \brief
 864:Generated_Source\PSoC4/CapSense_Structure.c **** *  Reports if the specified widget detects a touch on any of its sensors.
 865:Generated_Source\PSoC4/CapSense_Structure.c **** *
 866:Generated_Source\PSoC4/CapSense_Structure.c **** * \details
 867:Generated_Source\PSoC4/CapSense_Structure.c **** *  This function reports if the specified widget has detected a touch or not by
 868:Generated_Source\PSoC4/CapSense_Structure.c **** *  extracting information from the wdgtStatus registers
 869:Generated_Source\PSoC4/CapSense_Structure.c **** *  (CapSense_WDGT_STATUS<X>_VALUE). This function does not process the
 870:Generated_Source\PSoC4/CapSense_Structure.c **** *  widget but extracts processed results from the \ref group_structures.
 871:Generated_Source\PSoC4/CapSense_Structure.c **** *
 872:Generated_Source\PSoC4/CapSense_Structure.c **** * \param widgetId
 873:Generated_Source\PSoC4/CapSense_Structure.c **** *  Specifies the ID number of the widget to get its status.
 874:Generated_Source\PSoC4/CapSense_Structure.c **** *  A macro for the widget ID can be found in the CapSense Configuration header
 875:Generated_Source\PSoC4/CapSense_Structure.c **** *  file defined as CapSense_<WidgetName>_WDGT_ID.
 876:Generated_Source\PSoC4/CapSense_Structure.c **** *
 877:Generated_Source\PSoC4/CapSense_Structure.c **** * \return
 878:Generated_Source\PSoC4/CapSense_Structure.c **** *  Returns the touch detection status of the specified widgets:
 879:Generated_Source\PSoC4/CapSense_Structure.c **** *    - Zero - No touch is detected in the specified widget or a wrong widgetId
 880:Generated_Source\PSoC4/CapSense_Structure.c **** *      is specified.
 881:Generated_Source\PSoC4/CapSense_Structure.c **** *    - Non-zero if at least one sensor of the specified widget is active, i.e.
 882:Generated_Source\PSoC4/CapSense_Structure.c **** *      a touch is detected.
 883:Generated_Source\PSoC4/CapSense_Structure.c **** *
 884:Generated_Source\PSoC4/CapSense_Structure.c **** *******************************************************************************/
 885:Generated_Source\PSoC4/CapSense_Structure.c **** uint32 CapSense_IsWidgetActive(uint32 widgetId)
 886:Generated_Source\PSoC4/CapSense_Structure.c **** {
 450              		.loc 1 886 0
 451              		.cfi_startproc
 452              		@ args = 0, pretend = 0, frame = 0
 453              		@ frame_needed = 0, uses_anonymous_args = 0
 454              		@ link register save eliminated.
 455              	.LVL41:
 887:Generated_Source\PSoC4/CapSense_Structure.c ****     uint32 result = 0Lu;
 888:Generated_Source\PSoC4/CapSense_Structure.c **** 
 889:Generated_Source\PSoC4/CapSense_Structure.c ****     if (widgetId < CapSense_TOTAL_WIDGETS)
 456              		.loc 1 889 0
 457 0000 0028     		cmp	r0, #0
 458 0002 0BD1     		bne	.L44
 890:Generated_Source\PSoC4/CapSense_Structure.c ****     {
 891:Generated_Source\PSoC4/CapSense_Structure.c ****         result = CapSense_GET_WIDGET_ACTIVE_STATUS(widgetId);
 459              		.loc 1 891 0
 460 0004 1F23     		movs	r3, #31
 461 0006 0340     		ands	r3, r0
 462 0008 0122     		movs	r2, #1
ARM GAS  C:\Users\JANUSD~1\AppData\Local\Temp\ccsiXrMH.s 			page 25


 463 000a 9A40     		lsls	r2, r2, r3
 464 000c 4009     		lsrs	r0, r0, #5
 465              	.LVL42:
 466 000e 031D     		adds	r3, r0, #4
 467 0010 9B00     		lsls	r3, r3, #2
 468 0012 0348     		ldr	r0, .L45
 469 0014 C318     		adds	r3, r0, r3
 470 0016 5868     		ldr	r0, [r3, #4]
 471 0018 1040     		ands	r0, r2
 472              	.LVL43:
 473 001a 00E0     		b	.L43
 474              	.LVL44:
 475              	.L44:
 887:Generated_Source\PSoC4/CapSense_Structure.c ****     uint32 result = 0Lu;
 476              		.loc 1 887 0
 477 001c 0020     		movs	r0, #0
 478              	.LVL45:
 479              	.L43:
 892:Generated_Source\PSoC4/CapSense_Structure.c ****     }
 893:Generated_Source\PSoC4/CapSense_Structure.c ****     return result;
 894:Generated_Source\PSoC4/CapSense_Structure.c **** }
 480              		.loc 1 894 0
 481              		@ sp needed
 482 001e 7047     		bx	lr
 483              	.L46:
 484              		.align	2
 485              	.L45:
 486 0020 00000000 		.word	CapSense_dsRam
 487              		.cfi_endproc
 488              	.LFE7:
 489              		.size	CapSense_IsWidgetActive, .-CapSense_IsWidgetActive
 490              		.section	.text.CapSense_IsSensorActive,"ax",%progbits
 491              		.align	2
 492              		.global	CapSense_IsSensorActive
 493              		.code	16
 494              		.thumb_func
 495              		.type	CapSense_IsSensorActive, %function
 496              	CapSense_IsSensorActive:
 497              	.LFB8:
 895:Generated_Source\PSoC4/CapSense_Structure.c **** 
 896:Generated_Source\PSoC4/CapSense_Structure.c **** 
 897:Generated_Source\PSoC4/CapSense_Structure.c **** /*******************************************************************************
 898:Generated_Source\PSoC4/CapSense_Structure.c **** * Function Name: CapSense_IsSensorActive
 899:Generated_Source\PSoC4/CapSense_Structure.c **** ****************************************************************************//**
 900:Generated_Source\PSoC4/CapSense_Structure.c **** *
 901:Generated_Source\PSoC4/CapSense_Structure.c **** * \brief
 902:Generated_Source\PSoC4/CapSense_Structure.c **** *  Reports if the specified sensor in the widget detects a touch.
 903:Generated_Source\PSoC4/CapSense_Structure.c **** *
 904:Generated_Source\PSoC4/CapSense_Structure.c **** * \details
 905:Generated_Source\PSoC4/CapSense_Structure.c **** *  This function reports if the specified sensor in the widget has detected a
 906:Generated_Source\PSoC4/CapSense_Structure.c **** *  touch or not by extracting information from the wdgtStatus registers
 907:Generated_Source\PSoC4/CapSense_Structure.c **** *  (CapSense_WDGT_STATUS<X>_VALUE). This function does not process the
 908:Generated_Source\PSoC4/CapSense_Structure.c **** *  widget or sensor but extracts processed results from the \ref group_structures.
 909:Generated_Source\PSoC4/CapSense_Structure.c **** *
 910:Generated_Source\PSoC4/CapSense_Structure.c **** *  For proximity sensors, this function returns the proximity detection status. To
 911:Generated_Source\PSoC4/CapSense_Structure.c **** *  get the finger touch status of proximity sensors, use the
 912:Generated_Source\PSoC4/CapSense_Structure.c **** *  CapSense_IsProximitySensorActive() function.
ARM GAS  C:\Users\JANUSD~1\AppData\Local\Temp\ccsiXrMH.s 			page 26


 913:Generated_Source\PSoC4/CapSense_Structure.c **** *
 914:Generated_Source\PSoC4/CapSense_Structure.c **** * \param widgetId
 915:Generated_Source\PSoC4/CapSense_Structure.c **** *  Specifies the ID number of the widget.
 916:Generated_Source\PSoC4/CapSense_Structure.c **** *  A macro for the widget ID can be found in the CapSense Configuration header
 917:Generated_Source\PSoC4/CapSense_Structure.c **** *  file defined as CapSense_<WidgetName>_WDGT_ID.
 918:Generated_Source\PSoC4/CapSense_Structure.c **** 
 919:Generated_Source\PSoC4/CapSense_Structure.c **** * \param sensorId
 920:Generated_Source\PSoC4/CapSense_Structure.c **** *  Specifies the ID number of the sensor within the widget to get its touch
 921:Generated_Source\PSoC4/CapSense_Structure.c **** *  detection status.
 922:Generated_Source\PSoC4/CapSense_Structure.c **** *  A macro for the sensor ID within the specified widget can be found in the
 923:Generated_Source\PSoC4/CapSense_Structure.c **** *  CapSense Configuration header file defined as
 924:Generated_Source\PSoC4/CapSense_Structure.c **** *  CapSense_<WidgetName>_SNS<SensorNumber>_ID.
 925:Generated_Source\PSoC4/CapSense_Structure.c **** *
 926:Generated_Source\PSoC4/CapSense_Structure.c **** * \return
 927:Generated_Source\PSoC4/CapSense_Structure.c **** *  Returns the touch detection status of the specified sensor / widget:
 928:Generated_Source\PSoC4/CapSense_Structure.c **** *    - Zero if no touch is detected in the specified sensor / widget or a wrong
 929:Generated_Source\PSoC4/CapSense_Structure.c **** *      widget ID / sensor ID is specified.
 930:Generated_Source\PSoC4/CapSense_Structure.c **** *    - Non-zero if the specified sensor is active i.e. touch is detected. If the
 931:Generated_Source\PSoC4/CapSense_Structure.c **** *      specific sensor belongs to a proximity widget, the proximity detection
 932:Generated_Source\PSoC4/CapSense_Structure.c **** *      status is returned.
 933:Generated_Source\PSoC4/CapSense_Structure.c **** *
 934:Generated_Source\PSoC4/CapSense_Structure.c **** *******************************************************************************/
 935:Generated_Source\PSoC4/CapSense_Structure.c **** uint32 CapSense_IsSensorActive(uint32 widgetId, uint32 sensorId)
 936:Generated_Source\PSoC4/CapSense_Structure.c **** {
 498              		.loc 1 936 0
 499              		.cfi_startproc
 500              		@ args = 0, pretend = 0, frame = 0
 501              		@ frame_needed = 0, uses_anonymous_args = 0
 502              		@ link register save eliminated.
 503              	.LVL46:
 937:Generated_Source\PSoC4/CapSense_Structure.c ****     uint32 result = 0Lu;
 938:Generated_Source\PSoC4/CapSense_Structure.c **** 
 939:Generated_Source\PSoC4/CapSense_Structure.c ****     if ((widgetId < CapSense_TOTAL_WIDGETS) &&
 504              		.loc 1 939 0
 505 0000 0028     		cmp	r0, #0
 506 0002 0DD1     		bne	.L49
 940:Generated_Source\PSoC4/CapSense_Structure.c ****         (sensorId < CapSense_GET_SENSOR_COUNT(widgetId)))
 507              		.loc 1 940 0 discriminator 1
 508 0004 2C23     		movs	r3, #44
 509 0006 4343     		muls	r3, r0
 510 0008 074A     		ldr	r2, .L51
 511 000a D318     		adds	r3, r2, r3
 512 000c 1B8D     		ldrh	r3, [r3, #40]
 939:Generated_Source\PSoC4/CapSense_Structure.c ****         (sensorId < CapSense_GET_SENSOR_COUNT(widgetId)))
 513              		.loc 1 939 0 discriminator 1
 514 000e 8B42     		cmp	r3, r1
 515 0010 08D9     		bls	.L50
 941:Generated_Source\PSoC4/CapSense_Structure.c ****     {
 942:Generated_Source\PSoC4/CapSense_Structure.c ****         #if (CapSense_ENABLE == CapSense_PROXIMITY_WIDGET_EN)
 943:Generated_Source\PSoC4/CapSense_Structure.c ****             if (CapSense_WD_PROXIMITY_E ==
 944:Generated_Source\PSoC4/CapSense_Structure.c ****                 (CapSense_WD_TYPE_ENUM)CapSense_dsFlash.wdgtArray[widgetId].wdgtType)
 945:Generated_Source\PSoC4/CapSense_Structure.c ****             {
 946:Generated_Source\PSoC4/CapSense_Structure.c ****                 sensorId = CapSense_PROX_STS_OFFSET(sensorId);
 947:Generated_Source\PSoC4/CapSense_Structure.c ****             }
 948:Generated_Source\PSoC4/CapSense_Structure.c ****         #endif /* (CapSense_ENABLE != CapSense_PROXIMITY_WIDGET_EN) */
 949:Generated_Source\PSoC4/CapSense_Structure.c ****         result = CapSense_dsRam.snsStatus[widgetId] & (1Lu << sensorId);
 516              		.loc 1 949 0
ARM GAS  C:\Users\JANUSD~1\AppData\Local\Temp\ccsiXrMH.s 			page 27


 517 0012 064B     		ldr	r3, .L51+4
 518 0014 1818     		adds	r0, r3, r0
 519              	.LVL47:
 520 0016 037E     		ldrb	r3, [r0, #24]
 521 0018 0120     		movs	r0, #1
 522 001a 8840     		lsls	r0, r0, r1
 523 001c 1840     		ands	r0, r3
 524              	.LVL48:
 525 001e 02E0     		b	.L48
 526              	.LVL49:
 527              	.L49:
 937:Generated_Source\PSoC4/CapSense_Structure.c **** 
 528              		.loc 1 937 0
 529 0020 0020     		movs	r0, #0
 530              	.LVL50:
 531 0022 00E0     		b	.L48
 532              	.LVL51:
 533              	.L50:
 534 0024 0020     		movs	r0, #0
 535              	.LVL52:
 536              	.L48:
 950:Generated_Source\PSoC4/CapSense_Structure.c ****     }
 951:Generated_Source\PSoC4/CapSense_Structure.c **** 
 952:Generated_Source\PSoC4/CapSense_Structure.c ****     return result;
 953:Generated_Source\PSoC4/CapSense_Structure.c **** }
 537              		.loc 1 953 0
 538              		@ sp needed
 539 0026 7047     		bx	lr
 540              	.L52:
 541              		.align	2
 542              	.L51:
 543 0028 00000000 		.word	.LANCHOR0
 544 002c 00000000 		.word	CapSense_dsRam
 545              		.cfi_endproc
 546              	.LFE8:
 547              		.size	CapSense_IsSensorActive, .-CapSense_IsSensorActive
 548              		.section	.text.CapSense_GetCentroidPos,"ax",%progbits
 549              		.align	2
 550              		.global	CapSense_GetCentroidPos
 551              		.code	16
 552              		.thumb_func
 553              		.type	CapSense_GetCentroidPos, %function
 554              	CapSense_GetCentroidPos:
 555              	.LFB9:
 954:Generated_Source\PSoC4/CapSense_Structure.c **** 
 955:Generated_Source\PSoC4/CapSense_Structure.c **** #if (0u != CapSense_MATRIX_WIDGET_EN)
 956:Generated_Source\PSoC4/CapSense_Structure.c **** /*******************************************************************************
 957:Generated_Source\PSoC4/CapSense_Structure.c **** * Function Name: CapSense_IsMatrixButtonsActive
 958:Generated_Source\PSoC4/CapSense_Structure.c **** ****************************************************************************//**
 959:Generated_Source\PSoC4/CapSense_Structure.c **** *
 960:Generated_Source\PSoC4/CapSense_Structure.c **** * \brief
 961:Generated_Source\PSoC4/CapSense_Structure.c **** *  Reports the status of the specified matrix button widget.
 962:Generated_Source\PSoC4/CapSense_Structure.c **** *
 963:Generated_Source\PSoC4/CapSense_Structure.c **** * \details
 964:Generated_Source\PSoC4/CapSense_Structure.c **** *  This function reports if the specified matrix widget has detected a touch or
 965:Generated_Source\PSoC4/CapSense_Structure.c **** *  not by extracting information from the wdgtStatus registers
 966:Generated_Source\PSoC4/CapSense_Structure.c **** *  (CapSense_WDGT_STATUS<X>_VALUE for the CSD widgets and
ARM GAS  C:\Users\JANUSD~1\AppData\Local\Temp\ccsiXrMH.s 			page 28


 967:Generated_Source\PSoC4/CapSense_Structure.c **** *  CapSense_SNS_STATUS<WidgetId>_VALUE for CSX widget). In addition, the
 968:Generated_Source\PSoC4/CapSense_Structure.c **** *  function provides details of the active sensor including active rows/columns
 969:Generated_Source\PSoC4/CapSense_Structure.c **** *  for the CSD widgets. This function is used only with the matrix button
 970:Generated_Source\PSoC4/CapSense_Structure.c **** *  widgets. This function does not process the widget but extracts
 971:Generated_Source\PSoC4/CapSense_Structure.c **** *  processed results from the \ref group_structures.
 972:Generated_Source\PSoC4/CapSense_Structure.c **** *
 973:Generated_Source\PSoC4/CapSense_Structure.c **** * \param widgetId
 974:Generated_Source\PSoC4/CapSense_Structure.c **** *  Specifies the ID number of the matrix button widget to check the status of its
 975:Generated_Source\PSoC4/CapSense_Structure.c **** *  sensors.
 976:Generated_Source\PSoC4/CapSense_Structure.c **** *  A macro for the widget ID can be found in the CapSense Configuration header file
 977:Generated_Source\PSoC4/CapSense_Structure.c **** *  defined as CapSense_<WidgetName>_WDGT_ID
 978:Generated_Source\PSoC4/CapSense_Structure.c **** *
 979:Generated_Source\PSoC4/CapSense_Structure.c **** * \return
 980:Generated_Source\PSoC4/CapSense_Structure.c **** *  Returns the touch detection status of the sensors in the specified matrix
 981:Generated_Source\PSoC4/CapSense_Structure.c **** *  buttons widget. Zero indicates that no touch is detected in the specified
 982:Generated_Source\PSoC4/CapSense_Structure.c **** *  widget or a wrong widgetId is specified.
 983:Generated_Source\PSoC4/CapSense_Structure.c **** *    1. For the matrix buttons widgets with the CSD sensing mode:
 984:Generated_Source\PSoC4/CapSense_Structure.c **** *      - Bit [31] if set, indicates that one or more sensors in the widget
 985:Generated_Source\PSoC4/CapSense_Structure.c **** *        detected a touch.
 986:Generated_Source\PSoC4/CapSense_Structure.c **** *      - Bits [30..24] are reserved
 987:Generated_Source\PSoC4/CapSense_Structure.c **** *      - Bits [23..16] indicate the logical sensor number of the sensor that
 988:Generated_Source\PSoC4/CapSense_Structure.c **** *        detected a touch. If more than one sensor detected a touch for the CSD
 989:Generated_Source\PSoC4/CapSense_Structure.c **** *        widget, no status is reported because more than one touch is invalid for the
 990:Generated_Source\PSoC4/CapSense_Structure.c **** *        CSD matrix buttons widgets.
 991:Generated_Source\PSoC4/CapSense_Structure.c **** *      - Bits [15..8] indicate the active row number.
 992:Generated_Source\PSoC4/CapSense_Structure.c **** *      - Bits [7..0] indicate the active column number.
 993:Generated_Source\PSoC4/CapSense_Structure.c **** *    2. For the matrix buttons widgets with the CSX widgets, each bit (31..0)
 994:Generated_Source\PSoC4/CapSense_Structure.c **** *      corresponds to the TX/RX intersection.
 995:Generated_Source\PSoC4/CapSense_Structure.c **** *
 996:Generated_Source\PSoC4/CapSense_Structure.c **** *******************************************************************************/
 997:Generated_Source\PSoC4/CapSense_Structure.c **** uint32 CapSense_IsMatrixButtonsActive(uint32 widgetId)
 998:Generated_Source\PSoC4/CapSense_Structure.c **** {
 999:Generated_Source\PSoC4/CapSense_Structure.c ****     uint32 result = 0Lu;
1000:Generated_Source\PSoC4/CapSense_Structure.c ****     cystatus state = CYRET_SUCCESS;
1001:Generated_Source\PSoC4/CapSense_Structure.c ****     CapSense_FLASH_WD_STRUCT const *ptrFlashWdgt = 0u;
1002:Generated_Source\PSoC4/CapSense_Structure.c **** 
1003:Generated_Source\PSoC4/CapSense_Structure.c ****     #if (0u != CapSense_CSD_MATRIX_WIDGET_EN)
1004:Generated_Source\PSoC4/CapSense_Structure.c ****         CapSense_RAM_WD_CSD_MATRIX_STRUCT *wdCsdMatrix;
1005:Generated_Source\PSoC4/CapSense_Structure.c ****     #endif
1006:Generated_Source\PSoC4/CapSense_Structure.c **** 
1007:Generated_Source\PSoC4/CapSense_Structure.c ****     if (widgetId >= CapSense_TOTAL_WIDGETS)
1008:Generated_Source\PSoC4/CapSense_Structure.c ****     {
1009:Generated_Source\PSoC4/CapSense_Structure.c ****         state = CYRET_BAD_PARAM;
1010:Generated_Source\PSoC4/CapSense_Structure.c ****     }
1011:Generated_Source\PSoC4/CapSense_Structure.c ****     else
1012:Generated_Source\PSoC4/CapSense_Structure.c ****     {
1013:Generated_Source\PSoC4/CapSense_Structure.c ****         ptrFlashWdgt = &CapSense_dsFlash.wdgtArray[widgetId];
1014:Generated_Source\PSoC4/CapSense_Structure.c **** 
1015:Generated_Source\PSoC4/CapSense_Structure.c ****         if ((CapSense_WD_TYPE_ENUM)ptrFlashWdgt->wdgtType != CapSense_WD_MATRIX_BUTTON_E)
1016:Generated_Source\PSoC4/CapSense_Structure.c ****         {
1017:Generated_Source\PSoC4/CapSense_Structure.c ****             state = CYRET_BAD_PARAM;
1018:Generated_Source\PSoC4/CapSense_Structure.c ****         }
1019:Generated_Source\PSoC4/CapSense_Structure.c ****         else if (0u == CapSense_GET_WIDGET_ACTIVE_STATUS(widgetId))
1020:Generated_Source\PSoC4/CapSense_Structure.c ****         {
1021:Generated_Source\PSoC4/CapSense_Structure.c ****             state = CYRET_BAD_PARAM;
1022:Generated_Source\PSoC4/CapSense_Structure.c ****         }
1023:Generated_Source\PSoC4/CapSense_Structure.c ****         else
ARM GAS  C:\Users\JANUSD~1\AppData\Local\Temp\ccsiXrMH.s 			page 29


1024:Generated_Source\PSoC4/CapSense_Structure.c ****         {
1025:Generated_Source\PSoC4/CapSense_Structure.c ****             /* input parameters are OK */
1026:Generated_Source\PSoC4/CapSense_Structure.c ****         }
1027:Generated_Source\PSoC4/CapSense_Structure.c ****     }
1028:Generated_Source\PSoC4/CapSense_Structure.c **** 
1029:Generated_Source\PSoC4/CapSense_Structure.c ****     if (CYRET_SUCCESS == state)
1030:Generated_Source\PSoC4/CapSense_Structure.c ****     {
1031:Generated_Source\PSoC4/CapSense_Structure.c ****         switch(CapSense_GET_SENSE_METHOD(ptrFlashWdgt))
1032:Generated_Source\PSoC4/CapSense_Structure.c ****         {
1033:Generated_Source\PSoC4/CapSense_Structure.c ****         #if (0u != CapSense_CSD_MATRIX_WIDGET_EN)
1034:Generated_Source\PSoC4/CapSense_Structure.c ****             case CapSense_SENSE_METHOD_CSD_E:
1035:Generated_Source\PSoC4/CapSense_Structure.c ****                 wdCsdMatrix = ptrFlashWdgt->ptr2WdgtRam;
1036:Generated_Source\PSoC4/CapSense_Structure.c **** 
1037:Generated_Source\PSoC4/CapSense_Structure.c ****                 result = CapSense_MATRIX_BUTTONS_TOUCHED |
1038:Generated_Source\PSoC4/CapSense_Structure.c ****                          ((uint32)wdCsdMatrix->posSnsId << 16u)  |
1039:Generated_Source\PSoC4/CapSense_Structure.c ****                          ((uint32)wdCsdMatrix->posRow   << 8u)   |
1040:Generated_Source\PSoC4/CapSense_Structure.c ****                          (uint32)wdCsdMatrix->posCol;
1041:Generated_Source\PSoC4/CapSense_Structure.c ****                 break;
1042:Generated_Source\PSoC4/CapSense_Structure.c ****         #endif /* #if (0u != CapSense_CSD_MATRIX_WIDGET_EN) */
1043:Generated_Source\PSoC4/CapSense_Structure.c **** 
1044:Generated_Source\PSoC4/CapSense_Structure.c ****         #if (0u != CapSense_CSX_MATRIX_WIDGET_EN)
1045:Generated_Source\PSoC4/CapSense_Structure.c ****             case CapSense_SENSE_METHOD_CSX_E:
1046:Generated_Source\PSoC4/CapSense_Structure.c ****                 result = CapSense_dsRam.snsStatus[widgetId];
1047:Generated_Source\PSoC4/CapSense_Structure.c ****                 break;
1048:Generated_Source\PSoC4/CapSense_Structure.c ****         #endif /* #if (0u != CapSense_CSX_MATRIX_WIDGET_EN) */
1049:Generated_Source\PSoC4/CapSense_Structure.c **** 
1050:Generated_Source\PSoC4/CapSense_Structure.c ****         default:
1051:Generated_Source\PSoC4/CapSense_Structure.c ****             CYASSERT(0u);
1052:Generated_Source\PSoC4/CapSense_Structure.c ****             break;
1053:Generated_Source\PSoC4/CapSense_Structure.c ****         }
1054:Generated_Source\PSoC4/CapSense_Structure.c ****     }
1055:Generated_Source\PSoC4/CapSense_Structure.c **** 
1056:Generated_Source\PSoC4/CapSense_Structure.c ****     return result;
1057:Generated_Source\PSoC4/CapSense_Structure.c **** }
1058:Generated_Source\PSoC4/CapSense_Structure.c **** #endif /* #if (0u != CapSense_MATRIX_WIDGET_EN) */
1059:Generated_Source\PSoC4/CapSense_Structure.c **** 
1060:Generated_Source\PSoC4/CapSense_Structure.c **** #if (0u != CapSense_PROXIMITY_WIDGET_EN)
1061:Generated_Source\PSoC4/CapSense_Structure.c **** /*******************************************************************************
1062:Generated_Source\PSoC4/CapSense_Structure.c **** * Function Name: CapSense_IsProximitySensorActive
1063:Generated_Source\PSoC4/CapSense_Structure.c **** ****************************************************************************//**
1064:Generated_Source\PSoC4/CapSense_Structure.c **** *
1065:Generated_Source\PSoC4/CapSense_Structure.c **** * \brief
1066:Generated_Source\PSoC4/CapSense_Structure.c **** *  Reports the finger detection status of the specified proximity widget/sensor.
1067:Generated_Source\PSoC4/CapSense_Structure.c **** *
1068:Generated_Source\PSoC4/CapSense_Structure.c **** * \details
1069:Generated_Source\PSoC4/CapSense_Structure.c **** *  This function reports if the specified proximity sensor has detected a touch
1070:Generated_Source\PSoC4/CapSense_Structure.c **** *  or not by extracting information from the wdgtStatus registers
1071:Generated_Source\PSoC4/CapSense_Structure.c **** *  (CapSense_SNS_STATUS<WidgetId>_VALUE). This function is used
1072:Generated_Source\PSoC4/CapSense_Structure.c **** *  only with proximity sensor widgets. This function does not process the
1073:Generated_Source\PSoC4/CapSense_Structure.c **** *  widget but extracts processed results from the \ref group_structures.
1074:Generated_Source\PSoC4/CapSense_Structure.c **** *
1075:Generated_Source\PSoC4/CapSense_Structure.c **** * \param widgetId
1076:Generated_Source\PSoC4/CapSense_Structure.c **** *  Specifies the ID number of the proximity widget.
1077:Generated_Source\PSoC4/CapSense_Structure.c **** *  A macro for the widget ID can be found in the CapSense Configuration header
1078:Generated_Source\PSoC4/CapSense_Structure.c **** *  file defined as CapSense_<WidgetName>_WDGT_ID
1079:Generated_Source\PSoC4/CapSense_Structure.c **** *
1080:Generated_Source\PSoC4/CapSense_Structure.c **** * \param proxId
ARM GAS  C:\Users\JANUSD~1\AppData\Local\Temp\ccsiXrMH.s 			page 30


1081:Generated_Source\PSoC4/CapSense_Structure.c **** *  Specifies the ID number of the proximity sensor within the proximity widget to
1082:Generated_Source\PSoC4/CapSense_Structure.c **** *  get its touch detection status.
1083:Generated_Source\PSoC4/CapSense_Structure.c **** *  A macro for the proximity ID within a specified widget can be found in the
1084:Generated_Source\PSoC4/CapSense_Structure.c **** *  CapSense Configuration header file defined as
1085:Generated_Source\PSoC4/CapSense_Structure.c **** *  CapSense_<WidgetName>_SNS<SensorNumber>_ID
1086:Generated_Source\PSoC4/CapSense_Structure.c **** *
1087:Generated_Source\PSoC4/CapSense_Structure.c **** * \return
1088:Generated_Source\PSoC4/CapSense_Structure.c **** *  Returns the status of the specified sensor of the proximity widget. Zero
1089:Generated_Source\PSoC4/CapSense_Structure.c **** *  indicates that no touch is detected in the specified sensor / widget or a
1090:Generated_Source\PSoC4/CapSense_Structure.c **** *  wrong widgetId / proxId is specified.
1091:Generated_Source\PSoC4/CapSense_Structure.c **** *    - Bits [31..2] are reserved.
1092:Generated_Source\PSoC4/CapSense_Structure.c **** *    - Bit [1] indicates that a touch is detected.
1093:Generated_Source\PSoC4/CapSense_Structure.c **** *    - Bit [0] indicates that a proximity is detected.
1094:Generated_Source\PSoC4/CapSense_Structure.c **** *
1095:Generated_Source\PSoC4/CapSense_Structure.c **** *******************************************************************************/
1096:Generated_Source\PSoC4/CapSense_Structure.c **** uint32 CapSense_IsProximitySensorActive(uint32 widgetId, uint32 proxId)
1097:Generated_Source\PSoC4/CapSense_Structure.c **** {
1098:Generated_Source\PSoC4/CapSense_Structure.c ****     uint32 result = 0Lu;
1099:Generated_Source\PSoC4/CapSense_Structure.c **** 
1100:Generated_Source\PSoC4/CapSense_Structure.c ****     if ((widgetId < CapSense_TOTAL_WIDGETS) && (proxId < CapSense_GET_SENSOR_COUNT(widgetId)) &&
1101:Generated_Source\PSoC4/CapSense_Structure.c ****         (CapSense_WD_PROXIMITY_E ==
1102:Generated_Source\PSoC4/CapSense_Structure.c ****             (CapSense_WD_TYPE_ENUM)CapSense_dsFlash.wdgtArray[widgetId].wdgtType))
1103:Generated_Source\PSoC4/CapSense_Structure.c ****     {
1104:Generated_Source\PSoC4/CapSense_Structure.c ****         result = CapSense_dsRam.snsStatus[widgetId];
1105:Generated_Source\PSoC4/CapSense_Structure.c ****         result >>= CapSense_PROX_STS_OFFSET(proxId);
1106:Generated_Source\PSoC4/CapSense_Structure.c ****         result &=  CapSense_PROX_STS_MASK;
1107:Generated_Source\PSoC4/CapSense_Structure.c ****     }
1108:Generated_Source\PSoC4/CapSense_Structure.c **** 
1109:Generated_Source\PSoC4/CapSense_Structure.c ****     return result;
1110:Generated_Source\PSoC4/CapSense_Structure.c **** }
1111:Generated_Source\PSoC4/CapSense_Structure.c **** #endif /* #if (0u != CapSense_PROXIMITY_WIDGET_EN) */
1112:Generated_Source\PSoC4/CapSense_Structure.c **** 
1113:Generated_Source\PSoC4/CapSense_Structure.c **** 
1114:Generated_Source\PSoC4/CapSense_Structure.c **** #if (0u != CapSense_SLIDER_WIDGET_EN)
1115:Generated_Source\PSoC4/CapSense_Structure.c **** /*******************************************************************************
1116:Generated_Source\PSoC4/CapSense_Structure.c **** * Function Name: CapSense_GetCentroidPos
1117:Generated_Source\PSoC4/CapSense_Structure.c **** ****************************************************************************//**
1118:Generated_Source\PSoC4/CapSense_Structure.c **** *
1119:Generated_Source\PSoC4/CapSense_Structure.c **** * \brief
1120:Generated_Source\PSoC4/CapSense_Structure.c **** *  Reports the centroid position for the specified slider widget.
1121:Generated_Source\PSoC4/CapSense_Structure.c **** *
1122:Generated_Source\PSoC4/CapSense_Structure.c **** * \details
1123:Generated_Source\PSoC4/CapSense_Structure.c **** *  This function reports the centroid value of a specified radial or linear
1124:Generated_Source\PSoC4/CapSense_Structure.c **** *  slider widget by extracting information from the wdgtStatus registers
1125:Generated_Source\PSoC4/CapSense_Structure.c **** *  (CapSense_<WidgetName>_POSITION<X>_VALUE). This function is
1126:Generated_Source\PSoC4/CapSense_Structure.c **** *  used only with radial or linear slider widgets. This function does not
1127:Generated_Source\PSoC4/CapSense_Structure.c **** *  process the widget but extracts processed results from the \ref group_structures.
1128:Generated_Source\PSoC4/CapSense_Structure.c **** *
1129:Generated_Source\PSoC4/CapSense_Structure.c **** * \param widgetId
1130:Generated_Source\PSoC4/CapSense_Structure.c **** *  Specifies the ID number of a slider widget to get the centroid of the
1131:Generated_Source\PSoC4/CapSense_Structure.c **** *  detected touch.
1132:Generated_Source\PSoC4/CapSense_Structure.c **** *  A macro for the widget ID can be found in the
1133:Generated_Source\PSoC4/CapSense_Structure.c **** *  CapSense Configuration header file defined as
1134:Generated_Source\PSoC4/CapSense_Structure.c **** *  CapSense_<WidgetName>_WDGT_ID
1135:Generated_Source\PSoC4/CapSense_Structure.c **** *
1136:Generated_Source\PSoC4/CapSense_Structure.c **** * \return
1137:Generated_Source\PSoC4/CapSense_Structure.c **** *  Returns the centroid position of a specified slider widget:
ARM GAS  C:\Users\JANUSD~1\AppData\Local\Temp\ccsiXrMH.s 			page 31


1138:Generated_Source\PSoC4/CapSense_Structure.c **** *    - The centroid position if a touch is detected.
1139:Generated_Source\PSoC4/CapSense_Structure.c **** *    - CapSense_SLIDER_NO_TOUCH - No touch is detected or a wrong
1140:Generated_Source\PSoC4/CapSense_Structure.c **** *      widgetId is specified.
1141:Generated_Source\PSoC4/CapSense_Structure.c **** *
1142:Generated_Source\PSoC4/CapSense_Structure.c **** *******************************************************************************/
1143:Generated_Source\PSoC4/CapSense_Structure.c **** uint32 CapSense_GetCentroidPos(uint32 widgetId)
1144:Generated_Source\PSoC4/CapSense_Structure.c **** {
 556              		.loc 1 1144 0
 557              		.cfi_startproc
 558              		@ args = 0, pretend = 0, frame = 0
 559              		@ frame_needed = 0, uses_anonymous_args = 0
 560              		@ link register save eliminated.
 561              	.LVL53:
1145:Generated_Source\PSoC4/CapSense_Structure.c ****     uint32 result = CapSense_SLIDER_NO_TOUCH;
1146:Generated_Source\PSoC4/CapSense_Structure.c ****     CapSense_RAM_WD_SLIDER_STRUCT *wdSlider;
1147:Generated_Source\PSoC4/CapSense_Structure.c **** 
1148:Generated_Source\PSoC4/CapSense_Structure.c ****     if ((widgetId < CapSense_TOTAL_WIDGETS) &&
 562              		.loc 1 1148 0
 563 0000 0028     		cmp	r0, #0
 564 0002 0FD1     		bne	.L55
1149:Generated_Source\PSoC4/CapSense_Structure.c ****         ((CapSense_WD_LINEAR_SLIDER_E ==
1150:Generated_Source\PSoC4/CapSense_Structure.c ****             (CapSense_WD_TYPE_ENUM)CapSense_dsFlash.wdgtArray[widgetId].wdgtType) ||
 565              		.loc 1 1150 0 discriminator 1
 566 0004 2C23     		movs	r3, #44
 567 0006 4343     		muls	r3, r0
 568 0008 084A     		ldr	r2, .L57
 569 000a D318     		adds	r3, r2, r3
 570 000c 2A33     		adds	r3, r3, #42
 571 000e 1B78     		ldrb	r3, [r3]
 572 0010 023B     		subs	r3, r3, #2
 573 0012 DBB2     		uxtb	r3, r3
1148:Generated_Source\PSoC4/CapSense_Structure.c ****         ((CapSense_WD_LINEAR_SLIDER_E ==
 574              		.loc 1 1148 0 discriminator 1
 575 0014 012B     		cmp	r3, #1
 576 0016 07D8     		bhi	.L56
1151:Generated_Source\PSoC4/CapSense_Structure.c ****          (CapSense_WD_RADIAL_SLIDER_E ==
1152:Generated_Source\PSoC4/CapSense_Structure.c ****             (CapSense_WD_TYPE_ENUM)CapSense_dsFlash.wdgtArray[widgetId].wdgtType)))
1153:Generated_Source\PSoC4/CapSense_Structure.c ****     {
1154:Generated_Source\PSoC4/CapSense_Structure.c ****         wdSlider = CapSense_dsFlash.wdgtArray[widgetId].ptr2WdgtRam;
 577              		.loc 1 1154 0
 578 0018 2C23     		movs	r3, #44
 579 001a 5843     		muls	r0, r3
 580              	.LVL54:
 581 001c 1018     		adds	r0, r2, r0
 582 001e 4369     		ldr	r3, [r0, #20]
 583              	.LVL55:
1155:Generated_Source\PSoC4/CapSense_Structure.c ****         result = (uint32)wdSlider->position[0u];
 584              		.loc 1 1155 0
 585 0020 D889     		ldrh	r0, [r3, #14]
 586              	.LVL56:
 587 0022 02E0     		b	.L54
 588              	.LVL57:
 589              	.L55:
1145:Generated_Source\PSoC4/CapSense_Structure.c ****     CapSense_RAM_WD_SLIDER_STRUCT *wdSlider;
 590              		.loc 1 1145 0
 591 0024 0248     		ldr	r0, .L57+4
 592              	.LVL58:
ARM GAS  C:\Users\JANUSD~1\AppData\Local\Temp\ccsiXrMH.s 			page 32


 593 0026 00E0     		b	.L54
 594              	.LVL59:
 595              	.L56:
 596 0028 0148     		ldr	r0, .L57+4
 597              	.LVL60:
 598              	.L54:
1156:Generated_Source\PSoC4/CapSense_Structure.c ****     }
1157:Generated_Source\PSoC4/CapSense_Structure.c **** 
1158:Generated_Source\PSoC4/CapSense_Structure.c ****     return result;
1159:Generated_Source\PSoC4/CapSense_Structure.c **** }
 599              		.loc 1 1159 0
 600              		@ sp needed
 601 002a 7047     		bx	lr
 602              	.L58:
 603              		.align	2
 604              	.L57:
 605 002c 00000000 		.word	.LANCHOR0
 606 0030 FFFF0000 		.word	65535
 607              		.cfi_endproc
 608              	.LFE9:
 609              		.size	CapSense_GetCentroidPos, .-CapSense_GetCentroidPos
 610              		.global	CapSense_ramWidgetInit
 611              		.global	CapSense_ioList
 612              		.global	CapSense_dsFlash
 613              		.comm	CapSense_dsRam,104,4
 614              		.section	.rodata
 615              		.align	2
 616              		.set	.LANCHOR0,. + 0
 617              		.type	CapSense_ramWidgetInit, %object
 618              		.size	CapSense_ramWidgetInit, 16
 619              	CapSense_ramWidgetInit:
 620 0000 0C00     		.short	12
 621 0002 2800     		.short	40
 622 0004 0A       		.byte	10
 623 0005 0A       		.byte	10
 624 0006 03       		.byte	3
 625 0007 01       		.byte	1
 626 0008 1E       		.byte	30
 627 0009 20       		.byte	32
 628 000a 0800     		.short	8
 629 000c 00       		.byte	0
 630 000d 00       		.space	1
 631 000e FFFF     		.short	-1
 632              		.type	CapSense_dsFlash, %object
 633              		.size	CapSense_dsFlash, 44
 634              	CapSense_dsFlash:
 635 0010 00000000 		.word	CapSense_ioList
 636 0014 1E000000 		.word	CapSense_dsRam+30
 637 0018 2E000000 		.word	CapSense_dsRam+46
 638 001c 00000000 		.word	0
 639 0020 04000000 		.word	CapSense_debounceLinearSlider0
 640 0024 11280000 		.word	10257
 641 0028 0500     		.short	5
 642 002a 02       		.byte	2
 643 002b 05       		.byte	5
 644 002c 6400     		.short	100
 645 002e 0000     		.space	2
ARM GAS  C:\Users\JANUSD~1\AppData\Local\Temp\ccsiXrMH.s 			page 33


 646 0030 00190000 		.word	6400
 647 0034 00000000 		.word	CapSense_posHistoryLinearSlider0
 648 0038 80       		.byte	-128
 649 0039 000000   		.space	3
 650              		.type	CapSense_ioList, %object
 651              		.size	CapSense_ioList, 140
 652              	CapSense_ioList:
 653 003c 00020240 		.word	1073873408
 654 0040 08020440 		.word	1074004488
 655 0044 00020440 		.word	1074004480
 656 0048 04020440 		.word	1074004484
 657 004c F0000000 		.word	240
 658 0050 02000000 		.word	2
 659 0054 04       		.byte	4
 660 0055 01       		.byte	1
 661 0056 03       		.byte	3
 662 0057 00       		.space	1
 663 0058 00020240 		.word	1073873408
 664 005c 08020440 		.word	1074004488
 665 0060 00020440 		.word	1074004480
 666 0064 04020440 		.word	1074004484
 667 0068 000F0000 		.word	3840
 668 006c 04000000 		.word	4
 669 0070 08       		.byte	8
 670 0071 02       		.byte	2
 671 0072 06       		.byte	6
 672 0073 00       		.space	1
 673 0074 00020240 		.word	1073873408
 674 0078 08020440 		.word	1074004488
 675 007c 00020440 		.word	1074004480
 676 0080 04020440 		.word	1074004484
 677 0084 00F00000 		.word	61440
 678 0088 08000000 		.word	8
 679 008c 0C       		.byte	12
 680 008d 03       		.byte	3
 681 008e 09       		.byte	9
 682 008f 00       		.space	1
 683 0090 00020240 		.word	1073873408
 684 0094 08020440 		.word	1074004488
 685 0098 00020440 		.word	1074004480
 686 009c 04020440 		.word	1074004484
 687 00a0 00000F00 		.word	983040
 688 00a4 10000000 		.word	16
 689 00a8 10       		.byte	16
 690 00a9 04       		.byte	4
 691 00aa 0C       		.byte	12
 692 00ab 00       		.space	1
 693 00ac 00020240 		.word	1073873408
 694 00b0 08020440 		.word	1074004488
 695 00b4 00020440 		.word	1074004480
 696 00b8 04020440 		.word	1074004484
 697 00bc 0000F000 		.word	15728640
 698 00c0 20000000 		.word	32
 699 00c4 14       		.byte	20
 700 00c5 05       		.byte	5
 701 00c6 0F       		.byte	15
 702 00c7 00       		.space	1
ARM GAS  C:\Users\JANUSD~1\AppData\Local\Temp\ccsiXrMH.s 			page 34


 703              		.bss
 704              		.align	2
 705              		.type	CapSense_posHistoryLinearSlider0, %object
 706              		.size	CapSense_posHistoryLinearSlider0, 2
 707              	CapSense_posHistoryLinearSlider0:
 708 0000 0000     		.space	2
 709 0002 0000     		.space	2
 710              		.type	CapSense_debounceLinearSlider0, %object
 711              		.size	CapSense_debounceLinearSlider0, 1
 712              	CapSense_debounceLinearSlider0:
 713 0004 00       		.space	1
 714              		.text
 715              	.Letext0:
 716              		.file 2 "Generated_Source\\PSoC4/cytypes.h"
 717              		.file 3 "Generated_Source\\PSoC4\\CapSense_Configuration.h"
 718              		.file 4 "Generated_Source\\PSoC4\\CapSense_Structure.h"
 719              		.file 5 "Generated_Source\\PSoC4\\CyLib.h"