ARM GAS  C:\Users\JANUSD~1\AppData\Local\Temp\ccAKEX6L.s 			page 1


   1              		.syntax unified
   2              		.cpu cortex-m0
   3              		.fpu softvfp
   4              		.eabi_attribute 20, 1
   5              		.eabi_attribute 21, 1
   6              		.eabi_attribute 23, 3
   7              		.eabi_attribute 24, 1
   8              		.eabi_attribute 25, 1
   9              		.eabi_attribute 26, 1
  10              		.eabi_attribute 30, 1
  11              		.eabi_attribute 34, 0
  12              		.eabi_attribute 18, 4
  13              		.thumb
  14              		.syntax unified
  15              		.file	"PWM.c"
  16              		.text
  17              	.Ltext0:
  18              		.cfi_sections	.debug_frame
  19              		.section	.text.PWM_Enable,"ax",%progbits
  20              		.align	2
  21              		.global	PWM_Enable
  22              		.code	16
  23              		.thumb_func
  24              		.type	PWM_Enable, %function
  25              	PWM_Enable:
  26              	.LFB4:
  27              		.file 1 "Generated_Source\\PSoC4\\PWM.c"
   1:Generated_Source\PSoC4/PWM.c **** /*******************************************************************************
   2:Generated_Source\PSoC4/PWM.c **** * File Name: PWM.c
   3:Generated_Source\PSoC4/PWM.c **** * Version 3.30
   4:Generated_Source\PSoC4/PWM.c **** *
   5:Generated_Source\PSoC4/PWM.c **** * Description:
   6:Generated_Source\PSoC4/PWM.c **** *  The PWM User Module consist of an 8 or 16-bit counter with two 8 or 16-bit
   7:Generated_Source\PSoC4/PWM.c **** *  comparitors. Each instance of this user module is capable of generating
   8:Generated_Source\PSoC4/PWM.c **** *  two PWM outputs with the same period. The pulse width is selectable between
   9:Generated_Source\PSoC4/PWM.c **** *  1 and 255/65535. The period is selectable between 2 and 255/65536 clocks.
  10:Generated_Source\PSoC4/PWM.c **** *  The compare value output may be configured to be active when the present
  11:Generated_Source\PSoC4/PWM.c **** *  counter is less than or less than/equal to the compare value.
  12:Generated_Source\PSoC4/PWM.c **** *  A terminal count output is also provided. It generates a pulse one clock
  13:Generated_Source\PSoC4/PWM.c **** *  width wide when the counter is equal to zero.
  14:Generated_Source\PSoC4/PWM.c **** *
  15:Generated_Source\PSoC4/PWM.c **** * Note:
  16:Generated_Source\PSoC4/PWM.c **** *
  17:Generated_Source\PSoC4/PWM.c **** *******************************************************************************
  18:Generated_Source\PSoC4/PWM.c **** * Copyright 2008-2014, Cypress Semiconductor Corporation.  All rights reserved.
  19:Generated_Source\PSoC4/PWM.c **** * You may use this file only in accordance with the license, terms, conditions,
  20:Generated_Source\PSoC4/PWM.c **** * disclaimers, and limitations in the end user license agreement accompanying
  21:Generated_Source\PSoC4/PWM.c **** * the software package with which this file was provided.
  22:Generated_Source\PSoC4/PWM.c **** ********************************************************************************/
  23:Generated_Source\PSoC4/PWM.c **** 
  24:Generated_Source\PSoC4/PWM.c **** #include "PWM.h"
  25:Generated_Source\PSoC4/PWM.c **** 
  26:Generated_Source\PSoC4/PWM.c **** /* Error message for removed <resource> through optimization */
  27:Generated_Source\PSoC4/PWM.c **** #ifdef PWM_PWMUDB_genblk1_ctrlreg__REMOVED
  28:Generated_Source\PSoC4/PWM.c ****     #error PWM_v3_30 detected with a constant 0 for the enable or \
  29:Generated_Source\PSoC4/PWM.c ****          constant 1 for reset. This will prevent the component from operating.
  30:Generated_Source\PSoC4/PWM.c **** #endif /* PWM_PWMUDB_genblk1_ctrlreg__REMOVED */
ARM GAS  C:\Users\JANUSD~1\AppData\Local\Temp\ccAKEX6L.s 			page 2


  31:Generated_Source\PSoC4/PWM.c **** 
  32:Generated_Source\PSoC4/PWM.c **** uint8 PWM_initVar = 0u;
  33:Generated_Source\PSoC4/PWM.c **** 
  34:Generated_Source\PSoC4/PWM.c **** 
  35:Generated_Source\PSoC4/PWM.c **** /*******************************************************************************
  36:Generated_Source\PSoC4/PWM.c **** * Function Name: PWM_Start
  37:Generated_Source\PSoC4/PWM.c **** ********************************************************************************
  38:Generated_Source\PSoC4/PWM.c **** *
  39:Generated_Source\PSoC4/PWM.c **** * Summary:
  40:Generated_Source\PSoC4/PWM.c **** *  The start function initializes the pwm with the default values, the
  41:Generated_Source\PSoC4/PWM.c **** *  enables the counter to begin counting.  It does not enable interrupts,
  42:Generated_Source\PSoC4/PWM.c **** *  the EnableInt command should be called if interrupt generation is required.
  43:Generated_Source\PSoC4/PWM.c **** *
  44:Generated_Source\PSoC4/PWM.c **** * Parameters:
  45:Generated_Source\PSoC4/PWM.c **** *  None
  46:Generated_Source\PSoC4/PWM.c **** *
  47:Generated_Source\PSoC4/PWM.c **** * Return:
  48:Generated_Source\PSoC4/PWM.c **** *  None
  49:Generated_Source\PSoC4/PWM.c **** *
  50:Generated_Source\PSoC4/PWM.c **** * Global variables:
  51:Generated_Source\PSoC4/PWM.c **** *  PWM_initVar: Is modified when this function is called for the
  52:Generated_Source\PSoC4/PWM.c **** *   first time. Is used to ensure that initialization happens only once.
  53:Generated_Source\PSoC4/PWM.c **** *
  54:Generated_Source\PSoC4/PWM.c **** *******************************************************************************/
  55:Generated_Source\PSoC4/PWM.c **** void PWM_Start(void) 
  56:Generated_Source\PSoC4/PWM.c **** {
  57:Generated_Source\PSoC4/PWM.c ****     /* If not Initialized then initialize all required hardware and software */
  58:Generated_Source\PSoC4/PWM.c ****     if(PWM_initVar == 0u)
  59:Generated_Source\PSoC4/PWM.c ****     {
  60:Generated_Source\PSoC4/PWM.c ****         PWM_Init();
  61:Generated_Source\PSoC4/PWM.c ****         PWM_initVar = 1u;
  62:Generated_Source\PSoC4/PWM.c ****     }
  63:Generated_Source\PSoC4/PWM.c ****     PWM_Enable();
  64:Generated_Source\PSoC4/PWM.c **** 
  65:Generated_Source\PSoC4/PWM.c **** }
  66:Generated_Source\PSoC4/PWM.c **** 
  67:Generated_Source\PSoC4/PWM.c **** 
  68:Generated_Source\PSoC4/PWM.c **** /*******************************************************************************
  69:Generated_Source\PSoC4/PWM.c **** * Function Name: PWM_Init
  70:Generated_Source\PSoC4/PWM.c **** ********************************************************************************
  71:Generated_Source\PSoC4/PWM.c **** *
  72:Generated_Source\PSoC4/PWM.c **** * Summary:
  73:Generated_Source\PSoC4/PWM.c **** *  Initialize component's parameters to the parameters set by user in the
  74:Generated_Source\PSoC4/PWM.c **** *  customizer of the component placed onto schematic. Usually called in
  75:Generated_Source\PSoC4/PWM.c **** *  PWM_Start().
  76:Generated_Source\PSoC4/PWM.c **** *
  77:Generated_Source\PSoC4/PWM.c **** * Parameters:
  78:Generated_Source\PSoC4/PWM.c **** *  None
  79:Generated_Source\PSoC4/PWM.c **** *
  80:Generated_Source\PSoC4/PWM.c **** * Return:
  81:Generated_Source\PSoC4/PWM.c **** *  None
  82:Generated_Source\PSoC4/PWM.c **** *
  83:Generated_Source\PSoC4/PWM.c **** *******************************************************************************/
  84:Generated_Source\PSoC4/PWM.c **** void PWM_Init(void) 
  85:Generated_Source\PSoC4/PWM.c **** {
  86:Generated_Source\PSoC4/PWM.c ****     #if (PWM_UsingFixedFunction || PWM_UseControl)
  87:Generated_Source\PSoC4/PWM.c ****         uint8 ctrl;
ARM GAS  C:\Users\JANUSD~1\AppData\Local\Temp\ccAKEX6L.s 			page 3


  88:Generated_Source\PSoC4/PWM.c ****     #endif /* (PWM_UsingFixedFunction || PWM_UseControl) */
  89:Generated_Source\PSoC4/PWM.c **** 
  90:Generated_Source\PSoC4/PWM.c ****     #if(!PWM_UsingFixedFunction)
  91:Generated_Source\PSoC4/PWM.c ****         #if(PWM_UseStatus)
  92:Generated_Source\PSoC4/PWM.c ****             /* Interrupt State Backup for Critical Region*/
  93:Generated_Source\PSoC4/PWM.c ****             uint8 PWM_interruptState;
  94:Generated_Source\PSoC4/PWM.c ****         #endif /* (PWM_UseStatus) */
  95:Generated_Source\PSoC4/PWM.c ****     #endif /* (!PWM_UsingFixedFunction) */
  96:Generated_Source\PSoC4/PWM.c **** 
  97:Generated_Source\PSoC4/PWM.c ****     #if (PWM_UsingFixedFunction)
  98:Generated_Source\PSoC4/PWM.c ****         /* You are allowed to write the compare value (FF only) */
  99:Generated_Source\PSoC4/PWM.c ****         PWM_CONTROL |= PWM_CFG0_MODE;
 100:Generated_Source\PSoC4/PWM.c ****         #if (PWM_DeadBand2_4)
 101:Generated_Source\PSoC4/PWM.c ****             PWM_CONTROL |= PWM_CFG0_DB;
 102:Generated_Source\PSoC4/PWM.c ****         #endif /* (PWM_DeadBand2_4) */
 103:Generated_Source\PSoC4/PWM.c **** 
 104:Generated_Source\PSoC4/PWM.c ****         ctrl = PWM_CONTROL3 & ((uint8 )(~PWM_CTRL_CMPMODE1_MASK));
 105:Generated_Source\PSoC4/PWM.c ****         PWM_CONTROL3 = ctrl | PWM_DEFAULT_COMPARE1_MODE;
 106:Generated_Source\PSoC4/PWM.c **** 
 107:Generated_Source\PSoC4/PWM.c ****          /* Clear and Set SYNCTC and SYNCCMP bits of RT1 register */
 108:Generated_Source\PSoC4/PWM.c ****         PWM_RT1 &= ((uint8)(~PWM_RT1_MASK));
 109:Generated_Source\PSoC4/PWM.c ****         PWM_RT1 |= PWM_SYNC;
 110:Generated_Source\PSoC4/PWM.c **** 
 111:Generated_Source\PSoC4/PWM.c ****         /*Enable DSI Sync all all inputs of the PWM*/
 112:Generated_Source\PSoC4/PWM.c ****         PWM_RT1 &= ((uint8)(~PWM_SYNCDSI_MASK));
 113:Generated_Source\PSoC4/PWM.c ****         PWM_RT1 |= PWM_SYNCDSI_EN;
 114:Generated_Source\PSoC4/PWM.c **** 
 115:Generated_Source\PSoC4/PWM.c ****     #elif (PWM_UseControl)
 116:Generated_Source\PSoC4/PWM.c ****         /* Set the default compare mode defined in the parameter */
 117:Generated_Source\PSoC4/PWM.c ****         ctrl = PWM_CONTROL & ((uint8)(~PWM_CTRL_CMPMODE2_MASK)) &
 118:Generated_Source\PSoC4/PWM.c ****                 ((uint8)(~PWM_CTRL_CMPMODE1_MASK));
 119:Generated_Source\PSoC4/PWM.c ****         PWM_CONTROL = ctrl | PWM_DEFAULT_COMPARE2_MODE |
 120:Generated_Source\PSoC4/PWM.c ****                                    PWM_DEFAULT_COMPARE1_MODE;
 121:Generated_Source\PSoC4/PWM.c ****     #endif /* (PWM_UsingFixedFunction) */
 122:Generated_Source\PSoC4/PWM.c **** 
 123:Generated_Source\PSoC4/PWM.c ****     #if (!PWM_UsingFixedFunction)
 124:Generated_Source\PSoC4/PWM.c ****         #if (PWM_Resolution == 8)
 125:Generated_Source\PSoC4/PWM.c ****             /* Set FIFO 0 to 1 byte register for period*/
 126:Generated_Source\PSoC4/PWM.c ****             PWM_AUX_CONTROLDP0 |= (PWM_AUX_CTRL_FIFO0_CLR);
 127:Generated_Source\PSoC4/PWM.c ****         #else /* (PWM_Resolution == 16)*/
 128:Generated_Source\PSoC4/PWM.c ****             /* Set FIFO 0 to 1 byte register for period */
 129:Generated_Source\PSoC4/PWM.c ****             PWM_AUX_CONTROLDP0 |= (PWM_AUX_CTRL_FIFO0_CLR);
 130:Generated_Source\PSoC4/PWM.c ****             PWM_AUX_CONTROLDP1 |= (PWM_AUX_CTRL_FIFO0_CLR);
 131:Generated_Source\PSoC4/PWM.c ****         #endif /* (PWM_Resolution == 8) */
 132:Generated_Source\PSoC4/PWM.c **** 
 133:Generated_Source\PSoC4/PWM.c ****         PWM_WriteCounter(PWM_INIT_PERIOD_VALUE);
 134:Generated_Source\PSoC4/PWM.c ****     #endif /* (!PWM_UsingFixedFunction) */
 135:Generated_Source\PSoC4/PWM.c **** 
 136:Generated_Source\PSoC4/PWM.c ****     PWM_WritePeriod(PWM_INIT_PERIOD_VALUE);
 137:Generated_Source\PSoC4/PWM.c **** 
 138:Generated_Source\PSoC4/PWM.c ****         #if (PWM_UseOneCompareMode)
 139:Generated_Source\PSoC4/PWM.c ****             PWM_WriteCompare(PWM_INIT_COMPARE_VALUE1);
 140:Generated_Source\PSoC4/PWM.c ****         #else
 141:Generated_Source\PSoC4/PWM.c ****             PWM_WriteCompare1(PWM_INIT_COMPARE_VALUE1);
 142:Generated_Source\PSoC4/PWM.c ****             PWM_WriteCompare2(PWM_INIT_COMPARE_VALUE2);
 143:Generated_Source\PSoC4/PWM.c ****         #endif /* (PWM_UseOneCompareMode) */
 144:Generated_Source\PSoC4/PWM.c **** 
ARM GAS  C:\Users\JANUSD~1\AppData\Local\Temp\ccAKEX6L.s 			page 4


 145:Generated_Source\PSoC4/PWM.c ****         #if (PWM_KillModeMinTime)
 146:Generated_Source\PSoC4/PWM.c ****             PWM_WriteKillTime(PWM_MinimumKillTime);
 147:Generated_Source\PSoC4/PWM.c ****         #endif /* (PWM_KillModeMinTime) */
 148:Generated_Source\PSoC4/PWM.c **** 
 149:Generated_Source\PSoC4/PWM.c ****         #if (PWM_DeadBandUsed)
 150:Generated_Source\PSoC4/PWM.c ****             PWM_WriteDeadTime(PWM_INIT_DEAD_TIME);
 151:Generated_Source\PSoC4/PWM.c ****         #endif /* (PWM_DeadBandUsed) */
 152:Generated_Source\PSoC4/PWM.c **** 
 153:Generated_Source\PSoC4/PWM.c ****     #if (PWM_UseStatus || PWM_UsingFixedFunction)
 154:Generated_Source\PSoC4/PWM.c ****         PWM_SetInterruptMode(PWM_INIT_INTERRUPTS_MODE);
 155:Generated_Source\PSoC4/PWM.c ****     #endif /* (PWM_UseStatus || PWM_UsingFixedFunction) */
 156:Generated_Source\PSoC4/PWM.c **** 
 157:Generated_Source\PSoC4/PWM.c ****     #if (PWM_UsingFixedFunction)
 158:Generated_Source\PSoC4/PWM.c ****         /* Globally Enable the Fixed Function Block chosen */
 159:Generated_Source\PSoC4/PWM.c ****         PWM_GLOBAL_ENABLE |= PWM_BLOCK_EN_MASK;
 160:Generated_Source\PSoC4/PWM.c ****         /* Set the Interrupt source to come from the status register */
 161:Generated_Source\PSoC4/PWM.c ****         PWM_CONTROL2 |= PWM_CTRL2_IRQ_SEL;
 162:Generated_Source\PSoC4/PWM.c ****     #else
 163:Generated_Source\PSoC4/PWM.c ****         #if(PWM_UseStatus)
 164:Generated_Source\PSoC4/PWM.c **** 
 165:Generated_Source\PSoC4/PWM.c ****             /* CyEnterCriticalRegion and CyExitCriticalRegion are used to mark following region cri
 166:Generated_Source\PSoC4/PWM.c ****             /* Enter Critical Region*/
 167:Generated_Source\PSoC4/PWM.c ****             PWM_interruptState = CyEnterCriticalSection();
 168:Generated_Source\PSoC4/PWM.c ****             /* Use the interrupt output of the status register for IRQ output */
 169:Generated_Source\PSoC4/PWM.c ****             PWM_STATUS_AUX_CTRL |= PWM_STATUS_ACTL_INT_EN_MASK;
 170:Generated_Source\PSoC4/PWM.c **** 
 171:Generated_Source\PSoC4/PWM.c ****              /* Exit Critical Region*/
 172:Generated_Source\PSoC4/PWM.c ****             CyExitCriticalSection(PWM_interruptState);
 173:Generated_Source\PSoC4/PWM.c **** 
 174:Generated_Source\PSoC4/PWM.c ****             /* Clear the FIFO to enable the PWM_STATUS_FIFOFULL
 175:Generated_Source\PSoC4/PWM.c ****                    bit to be set on FIFO full. */
 176:Generated_Source\PSoC4/PWM.c ****             PWM_ClearFIFO();
 177:Generated_Source\PSoC4/PWM.c ****         #endif /* (PWM_UseStatus) */
 178:Generated_Source\PSoC4/PWM.c ****     #endif /* (PWM_UsingFixedFunction) */
 179:Generated_Source\PSoC4/PWM.c **** }
 180:Generated_Source\PSoC4/PWM.c **** 
 181:Generated_Source\PSoC4/PWM.c **** 
 182:Generated_Source\PSoC4/PWM.c **** /*******************************************************************************
 183:Generated_Source\PSoC4/PWM.c **** * Function Name: PWM_Enable
 184:Generated_Source\PSoC4/PWM.c **** ********************************************************************************
 185:Generated_Source\PSoC4/PWM.c **** *
 186:Generated_Source\PSoC4/PWM.c **** * Summary:
 187:Generated_Source\PSoC4/PWM.c **** *  Enables the PWM block operation
 188:Generated_Source\PSoC4/PWM.c **** *
 189:Generated_Source\PSoC4/PWM.c **** * Parameters:
 190:Generated_Source\PSoC4/PWM.c **** *  None
 191:Generated_Source\PSoC4/PWM.c **** *
 192:Generated_Source\PSoC4/PWM.c **** * Return:
 193:Generated_Source\PSoC4/PWM.c **** *  None
 194:Generated_Source\PSoC4/PWM.c **** *
 195:Generated_Source\PSoC4/PWM.c **** * Side Effects:
 196:Generated_Source\PSoC4/PWM.c **** *  This works only if software enable mode is chosen
 197:Generated_Source\PSoC4/PWM.c **** *
 198:Generated_Source\PSoC4/PWM.c **** *******************************************************************************/
 199:Generated_Source\PSoC4/PWM.c **** void PWM_Enable(void) 
 200:Generated_Source\PSoC4/PWM.c **** {
  28              		.loc 1 200 0
ARM GAS  C:\Users\JANUSD~1\AppData\Local\Temp\ccAKEX6L.s 			page 5


  29              		.cfi_startproc
  30              		@ args = 0, pretend = 0, frame = 0
  31              		@ frame_needed = 0, uses_anonymous_args = 0
  32              		@ link register save eliminated.
 201:Generated_Source\PSoC4/PWM.c ****     /* Globally Enable the Fixed Function Block chosen */
 202:Generated_Source\PSoC4/PWM.c ****     #if (PWM_UsingFixedFunction)
 203:Generated_Source\PSoC4/PWM.c ****         PWM_GLOBAL_ENABLE |= PWM_BLOCK_EN_MASK;
 204:Generated_Source\PSoC4/PWM.c ****         PWM_GLOBAL_STBY_ENABLE |= PWM_BLOCK_STBY_EN_MASK;
 205:Generated_Source\PSoC4/PWM.c ****     #endif /* (PWM_UsingFixedFunction) */
 206:Generated_Source\PSoC4/PWM.c **** 
 207:Generated_Source\PSoC4/PWM.c ****     /* Enable the PWM from the control register  */
 208:Generated_Source\PSoC4/PWM.c ****     #if (PWM_UseControl || PWM_UsingFixedFunction)
 209:Generated_Source\PSoC4/PWM.c ****         PWM_CONTROL |= PWM_CTRL_ENABLE;
  33              		.loc 1 209 0
  34 0000 034A     		ldr	r2, .L2
  35 0002 1178     		ldrb	r1, [r2]
  36 0004 8023     		movs	r3, #128
  37 0006 5B42     		rsbs	r3, r3, #0
  38 0008 0B43     		orrs	r3, r1
  39 000a DBB2     		uxtb	r3, r3
  40 000c 1370     		strb	r3, [r2]
 210:Generated_Source\PSoC4/PWM.c ****     #endif /* (PWM_UseControl || PWM_UsingFixedFunction) */
 211:Generated_Source\PSoC4/PWM.c **** }
  41              		.loc 1 211 0
  42              		@ sp needed
  43 000e 7047     		bx	lr
  44              	.L3:
  45              		.align	2
  46              	.L2:
  47 0010 70000F40 		.word	1074724976
  48              		.cfi_endproc
  49              	.LFE4:
  50              		.size	PWM_Enable, .-PWM_Enable
  51              		.section	.text.PWM_Stop,"ax",%progbits
  52              		.align	2
  53              		.global	PWM_Stop
  54              		.code	16
  55              		.thumb_func
  56              		.type	PWM_Stop, %function
  57              	PWM_Stop:
  58              	.LFB5:
 212:Generated_Source\PSoC4/PWM.c **** 
 213:Generated_Source\PSoC4/PWM.c **** 
 214:Generated_Source\PSoC4/PWM.c **** /*******************************************************************************
 215:Generated_Source\PSoC4/PWM.c **** * Function Name: PWM_Stop
 216:Generated_Source\PSoC4/PWM.c **** ********************************************************************************
 217:Generated_Source\PSoC4/PWM.c **** *
 218:Generated_Source\PSoC4/PWM.c **** * Summary:
 219:Generated_Source\PSoC4/PWM.c **** *  The stop function halts the PWM, but does not change any modes or disable
 220:Generated_Source\PSoC4/PWM.c **** *  interrupts.
 221:Generated_Source\PSoC4/PWM.c **** *
 222:Generated_Source\PSoC4/PWM.c **** * Parameters:
 223:Generated_Source\PSoC4/PWM.c **** *  None
 224:Generated_Source\PSoC4/PWM.c **** *
 225:Generated_Source\PSoC4/PWM.c **** * Return:
 226:Generated_Source\PSoC4/PWM.c **** *  None
 227:Generated_Source\PSoC4/PWM.c **** *
ARM GAS  C:\Users\JANUSD~1\AppData\Local\Temp\ccAKEX6L.s 			page 6


 228:Generated_Source\PSoC4/PWM.c **** * Side Effects:
 229:Generated_Source\PSoC4/PWM.c **** *  If the Enable mode is set to Hardware only then this function
 230:Generated_Source\PSoC4/PWM.c **** *  has no effect on the operation of the PWM
 231:Generated_Source\PSoC4/PWM.c **** *
 232:Generated_Source\PSoC4/PWM.c **** *******************************************************************************/
 233:Generated_Source\PSoC4/PWM.c **** void PWM_Stop(void) 
 234:Generated_Source\PSoC4/PWM.c **** {
  59              		.loc 1 234 0
  60              		.cfi_startproc
  61              		@ args = 0, pretend = 0, frame = 0
  62              		@ frame_needed = 0, uses_anonymous_args = 0
  63              		@ link register save eliminated.
 235:Generated_Source\PSoC4/PWM.c ****     #if (PWM_UseControl || PWM_UsingFixedFunction)
 236:Generated_Source\PSoC4/PWM.c ****         PWM_CONTROL &= ((uint8)(~PWM_CTRL_ENABLE));
  64              		.loc 1 236 0
  65 0000 024A     		ldr	r2, .L5
  66 0002 1178     		ldrb	r1, [r2]
  67 0004 7F23     		movs	r3, #127
  68 0006 0B40     		ands	r3, r1
  69 0008 1370     		strb	r3, [r2]
 237:Generated_Source\PSoC4/PWM.c ****     #endif /* (PWM_UseControl || PWM_UsingFixedFunction) */
 238:Generated_Source\PSoC4/PWM.c **** 
 239:Generated_Source\PSoC4/PWM.c ****     /* Globally disable the Fixed Function Block chosen */
 240:Generated_Source\PSoC4/PWM.c ****     #if (PWM_UsingFixedFunction)
 241:Generated_Source\PSoC4/PWM.c ****         PWM_GLOBAL_ENABLE &= ((uint8)(~PWM_BLOCK_EN_MASK));
 242:Generated_Source\PSoC4/PWM.c ****         PWM_GLOBAL_STBY_ENABLE &= ((uint8)(~PWM_BLOCK_STBY_EN_MASK));
 243:Generated_Source\PSoC4/PWM.c ****     #endif /* (PWM_UsingFixedFunction) */
 244:Generated_Source\PSoC4/PWM.c **** }
  70              		.loc 1 244 0
  71              		@ sp needed
  72 000a 7047     		bx	lr
  73              	.L6:
  74              		.align	2
  75              	.L5:
  76 000c 70000F40 		.word	1074724976
  77              		.cfi_endproc
  78              	.LFE5:
  79              		.size	PWM_Stop, .-PWM_Stop
  80              		.section	.text.PWM_WriteCounter,"ax",%progbits
  81              		.align	2
  82              		.global	PWM_WriteCounter
  83              		.code	16
  84              		.thumb_func
  85              		.type	PWM_WriteCounter, %function
  86              	PWM_WriteCounter:
  87              	.LFB6:
 245:Generated_Source\PSoC4/PWM.c **** 
 246:Generated_Source\PSoC4/PWM.c **** #if (PWM_UseOneCompareMode)
 247:Generated_Source\PSoC4/PWM.c ****     #if (PWM_CompareMode1SW)
 248:Generated_Source\PSoC4/PWM.c **** 
 249:Generated_Source\PSoC4/PWM.c **** 
 250:Generated_Source\PSoC4/PWM.c ****         /*******************************************************************************
 251:Generated_Source\PSoC4/PWM.c ****         * Function Name: PWM_SetCompareMode
 252:Generated_Source\PSoC4/PWM.c ****         ********************************************************************************
 253:Generated_Source\PSoC4/PWM.c ****         *
 254:Generated_Source\PSoC4/PWM.c ****         * Summary:
 255:Generated_Source\PSoC4/PWM.c ****         *  This function writes the Compare Mode for the pwm output when in Dither mode,
ARM GAS  C:\Users\JANUSD~1\AppData\Local\Temp\ccAKEX6L.s 			page 7


 256:Generated_Source\PSoC4/PWM.c ****         *  Center Align Mode or One Output Mode.
 257:Generated_Source\PSoC4/PWM.c ****         *
 258:Generated_Source\PSoC4/PWM.c ****         * Parameters:
 259:Generated_Source\PSoC4/PWM.c ****         *  comparemode:  The new compare mode for the PWM output. Use the compare types
 260:Generated_Source\PSoC4/PWM.c ****         *                defined in the H file as input arguments.
 261:Generated_Source\PSoC4/PWM.c ****         *
 262:Generated_Source\PSoC4/PWM.c ****         * Return:
 263:Generated_Source\PSoC4/PWM.c ****         *  None
 264:Generated_Source\PSoC4/PWM.c ****         *
 265:Generated_Source\PSoC4/PWM.c ****         *******************************************************************************/
 266:Generated_Source\PSoC4/PWM.c ****         void PWM_SetCompareMode(uint8 comparemode) 
 267:Generated_Source\PSoC4/PWM.c ****         {
 268:Generated_Source\PSoC4/PWM.c ****             #if(PWM_UsingFixedFunction)
 269:Generated_Source\PSoC4/PWM.c **** 
 270:Generated_Source\PSoC4/PWM.c ****                 #if(0 != PWM_CTRL_CMPMODE1_SHIFT)
 271:Generated_Source\PSoC4/PWM.c ****                     uint8 comparemodemasked = ((uint8)((uint8)comparemode << PWM_CTRL_CMPMODE1_SHIF
 272:Generated_Source\PSoC4/PWM.c ****                 #else
 273:Generated_Source\PSoC4/PWM.c ****                     uint8 comparemodemasked = comparemode;
 274:Generated_Source\PSoC4/PWM.c ****                 #endif /* (0 != PWM_CTRL_CMPMODE1_SHIFT) */
 275:Generated_Source\PSoC4/PWM.c **** 
 276:Generated_Source\PSoC4/PWM.c ****                 PWM_CONTROL3 &= ((uint8)(~PWM_CTRL_CMPMODE1_MASK)); /*Clear Existing Data */
 277:Generated_Source\PSoC4/PWM.c ****                 PWM_CONTROL3 |= comparemodemasked;
 278:Generated_Source\PSoC4/PWM.c **** 
 279:Generated_Source\PSoC4/PWM.c ****             #elif (PWM_UseControl)
 280:Generated_Source\PSoC4/PWM.c **** 
 281:Generated_Source\PSoC4/PWM.c ****                 #if(0 != PWM_CTRL_CMPMODE1_SHIFT)
 282:Generated_Source\PSoC4/PWM.c ****                     uint8 comparemode1masked = ((uint8)((uint8)comparemode << PWM_CTRL_CMPMODE1_SHI
 283:Generated_Source\PSoC4/PWM.c ****                                                 PWM_CTRL_CMPMODE1_MASK;
 284:Generated_Source\PSoC4/PWM.c ****                 #else
 285:Generated_Source\PSoC4/PWM.c ****                     uint8 comparemode1masked = comparemode & PWM_CTRL_CMPMODE1_MASK;
 286:Generated_Source\PSoC4/PWM.c ****                 #endif /* (0 != PWM_CTRL_CMPMODE1_SHIFT) */
 287:Generated_Source\PSoC4/PWM.c **** 
 288:Generated_Source\PSoC4/PWM.c ****                 #if(0 != PWM_CTRL_CMPMODE2_SHIFT)
 289:Generated_Source\PSoC4/PWM.c ****                     uint8 comparemode2masked = ((uint8)((uint8)comparemode << PWM_CTRL_CMPMODE2_SHI
 290:Generated_Source\PSoC4/PWM.c ****                                                PWM_CTRL_CMPMODE2_MASK;
 291:Generated_Source\PSoC4/PWM.c ****                 #else
 292:Generated_Source\PSoC4/PWM.c ****                     uint8 comparemode2masked = comparemode & PWM_CTRL_CMPMODE2_MASK;
 293:Generated_Source\PSoC4/PWM.c ****                 #endif /* (0 != PWM_CTRL_CMPMODE2_SHIFT) */
 294:Generated_Source\PSoC4/PWM.c **** 
 295:Generated_Source\PSoC4/PWM.c ****                 /*Clear existing mode */
 296:Generated_Source\PSoC4/PWM.c ****                 PWM_CONTROL &= ((uint8)(~(PWM_CTRL_CMPMODE1_MASK |
 297:Generated_Source\PSoC4/PWM.c ****                                             PWM_CTRL_CMPMODE2_MASK)));
 298:Generated_Source\PSoC4/PWM.c ****                 PWM_CONTROL |= (comparemode1masked | comparemode2masked);
 299:Generated_Source\PSoC4/PWM.c **** 
 300:Generated_Source\PSoC4/PWM.c ****             #else
 301:Generated_Source\PSoC4/PWM.c ****                 uint8 temp = comparemode;
 302:Generated_Source\PSoC4/PWM.c ****             #endif /* (PWM_UsingFixedFunction) */
 303:Generated_Source\PSoC4/PWM.c ****         }
 304:Generated_Source\PSoC4/PWM.c ****     #endif /* PWM_CompareMode1SW */
 305:Generated_Source\PSoC4/PWM.c **** 
 306:Generated_Source\PSoC4/PWM.c **** #else /* UseOneCompareMode */
 307:Generated_Source\PSoC4/PWM.c **** 
 308:Generated_Source\PSoC4/PWM.c ****     #if (PWM_CompareMode1SW)
 309:Generated_Source\PSoC4/PWM.c **** 
 310:Generated_Source\PSoC4/PWM.c **** 
 311:Generated_Source\PSoC4/PWM.c ****         /*******************************************************************************
 312:Generated_Source\PSoC4/PWM.c ****         * Function Name: PWM_SetCompareMode1
ARM GAS  C:\Users\JANUSD~1\AppData\Local\Temp\ccAKEX6L.s 			page 8


 313:Generated_Source\PSoC4/PWM.c ****         ********************************************************************************
 314:Generated_Source\PSoC4/PWM.c ****         *
 315:Generated_Source\PSoC4/PWM.c ****         * Summary:
 316:Generated_Source\PSoC4/PWM.c ****         *  This function writes the Compare Mode for the pwm or pwm1 output
 317:Generated_Source\PSoC4/PWM.c ****         *
 318:Generated_Source\PSoC4/PWM.c ****         * Parameters:
 319:Generated_Source\PSoC4/PWM.c ****         *  comparemode:  The new compare mode for the PWM output. Use the compare types
 320:Generated_Source\PSoC4/PWM.c ****         *                defined in the H file as input arguments.
 321:Generated_Source\PSoC4/PWM.c ****         *
 322:Generated_Source\PSoC4/PWM.c ****         * Return:
 323:Generated_Source\PSoC4/PWM.c ****         *  None
 324:Generated_Source\PSoC4/PWM.c ****         *
 325:Generated_Source\PSoC4/PWM.c ****         *******************************************************************************/
 326:Generated_Source\PSoC4/PWM.c ****         void PWM_SetCompareMode1(uint8 comparemode) 
 327:Generated_Source\PSoC4/PWM.c ****         {
 328:Generated_Source\PSoC4/PWM.c ****             #if(0 != PWM_CTRL_CMPMODE1_SHIFT)
 329:Generated_Source\PSoC4/PWM.c ****                 uint8 comparemodemasked = ((uint8)((uint8)comparemode << PWM_CTRL_CMPMODE1_SHIFT)) 
 330:Generated_Source\PSoC4/PWM.c ****                                            PWM_CTRL_CMPMODE1_MASK;
 331:Generated_Source\PSoC4/PWM.c ****             #else
 332:Generated_Source\PSoC4/PWM.c ****                 uint8 comparemodemasked = comparemode & PWM_CTRL_CMPMODE1_MASK;
 333:Generated_Source\PSoC4/PWM.c ****             #endif /* (0 != PWM_CTRL_CMPMODE1_SHIFT) */
 334:Generated_Source\PSoC4/PWM.c **** 
 335:Generated_Source\PSoC4/PWM.c ****             #if (PWM_UseControl)
 336:Generated_Source\PSoC4/PWM.c ****                 PWM_CONTROL &= ((uint8)(~PWM_CTRL_CMPMODE1_MASK)); /*Clear existing mode */
 337:Generated_Source\PSoC4/PWM.c ****                 PWM_CONTROL |= comparemodemasked;
 338:Generated_Source\PSoC4/PWM.c ****             #endif /* (PWM_UseControl) */
 339:Generated_Source\PSoC4/PWM.c ****         }
 340:Generated_Source\PSoC4/PWM.c ****     #endif /* PWM_CompareMode1SW */
 341:Generated_Source\PSoC4/PWM.c **** 
 342:Generated_Source\PSoC4/PWM.c **** #if (PWM_CompareMode2SW)
 343:Generated_Source\PSoC4/PWM.c **** 
 344:Generated_Source\PSoC4/PWM.c **** 
 345:Generated_Source\PSoC4/PWM.c ****     /*******************************************************************************
 346:Generated_Source\PSoC4/PWM.c ****     * Function Name: PWM_SetCompareMode2
 347:Generated_Source\PSoC4/PWM.c ****     ********************************************************************************
 348:Generated_Source\PSoC4/PWM.c ****     *
 349:Generated_Source\PSoC4/PWM.c ****     * Summary:
 350:Generated_Source\PSoC4/PWM.c ****     *  This function writes the Compare Mode for the pwm or pwm2 output
 351:Generated_Source\PSoC4/PWM.c ****     *
 352:Generated_Source\PSoC4/PWM.c ****     * Parameters:
 353:Generated_Source\PSoC4/PWM.c ****     *  comparemode:  The new compare mode for the PWM output. Use the compare types
 354:Generated_Source\PSoC4/PWM.c ****     *                defined in the H file as input arguments.
 355:Generated_Source\PSoC4/PWM.c ****     *
 356:Generated_Source\PSoC4/PWM.c ****     * Return:
 357:Generated_Source\PSoC4/PWM.c ****     *  None
 358:Generated_Source\PSoC4/PWM.c ****     *
 359:Generated_Source\PSoC4/PWM.c ****     *******************************************************************************/
 360:Generated_Source\PSoC4/PWM.c ****     void PWM_SetCompareMode2(uint8 comparemode) 
 361:Generated_Source\PSoC4/PWM.c ****     {
 362:Generated_Source\PSoC4/PWM.c **** 
 363:Generated_Source\PSoC4/PWM.c ****         #if(0 != PWM_CTRL_CMPMODE2_SHIFT)
 364:Generated_Source\PSoC4/PWM.c ****             uint8 comparemodemasked = ((uint8)((uint8)comparemode << PWM_CTRL_CMPMODE2_SHIFT)) &
 365:Generated_Source\PSoC4/PWM.c ****                                                  PWM_CTRL_CMPMODE2_MASK;
 366:Generated_Source\PSoC4/PWM.c ****         #else
 367:Generated_Source\PSoC4/PWM.c ****             uint8 comparemodemasked = comparemode & PWM_CTRL_CMPMODE2_MASK;
 368:Generated_Source\PSoC4/PWM.c ****         #endif /* (0 != PWM_CTRL_CMPMODE2_SHIFT) */
 369:Generated_Source\PSoC4/PWM.c **** 
ARM GAS  C:\Users\JANUSD~1\AppData\Local\Temp\ccAKEX6L.s 			page 9


 370:Generated_Source\PSoC4/PWM.c ****         #if (PWM_UseControl)
 371:Generated_Source\PSoC4/PWM.c ****             PWM_CONTROL &= ((uint8)(~PWM_CTRL_CMPMODE2_MASK)); /*Clear existing mode */
 372:Generated_Source\PSoC4/PWM.c ****             PWM_CONTROL |= comparemodemasked;
 373:Generated_Source\PSoC4/PWM.c ****         #endif /* (PWM_UseControl) */
 374:Generated_Source\PSoC4/PWM.c ****     }
 375:Generated_Source\PSoC4/PWM.c ****     #endif /*PWM_CompareMode2SW */
 376:Generated_Source\PSoC4/PWM.c **** 
 377:Generated_Source\PSoC4/PWM.c **** #endif /* UseOneCompareMode */
 378:Generated_Source\PSoC4/PWM.c **** 
 379:Generated_Source\PSoC4/PWM.c **** 
 380:Generated_Source\PSoC4/PWM.c **** #if (!PWM_UsingFixedFunction)
 381:Generated_Source\PSoC4/PWM.c **** 
 382:Generated_Source\PSoC4/PWM.c **** 
 383:Generated_Source\PSoC4/PWM.c ****     /*******************************************************************************
 384:Generated_Source\PSoC4/PWM.c ****     * Function Name: PWM_WriteCounter
 385:Generated_Source\PSoC4/PWM.c ****     ********************************************************************************
 386:Generated_Source\PSoC4/PWM.c ****     *
 387:Generated_Source\PSoC4/PWM.c ****     * Summary:
 388:Generated_Source\PSoC4/PWM.c ****     *  Writes a new counter value directly to the counter register. This will be
 389:Generated_Source\PSoC4/PWM.c ****     *  implemented for that currently running period and only that period. This API
 390:Generated_Source\PSoC4/PWM.c ****     *  is valid only for UDB implementation and not available for fixed function
 391:Generated_Source\PSoC4/PWM.c ****     *  PWM implementation.
 392:Generated_Source\PSoC4/PWM.c ****     *
 393:Generated_Source\PSoC4/PWM.c ****     * Parameters:
 394:Generated_Source\PSoC4/PWM.c ****     *  counter:  The period new period counter value.
 395:Generated_Source\PSoC4/PWM.c ****     *
 396:Generated_Source\PSoC4/PWM.c ****     * Return:
 397:Generated_Source\PSoC4/PWM.c ****     *  None
 398:Generated_Source\PSoC4/PWM.c ****     *
 399:Generated_Source\PSoC4/PWM.c ****     * Side Effects:
 400:Generated_Source\PSoC4/PWM.c ****     *  The PWM Period will be reloaded when a counter value will be a zero
 401:Generated_Source\PSoC4/PWM.c ****     *
 402:Generated_Source\PSoC4/PWM.c ****     *******************************************************************************/
 403:Generated_Source\PSoC4/PWM.c ****     void PWM_WriteCounter(uint8 counter) \
 404:Generated_Source\PSoC4/PWM.c ****                                        
 405:Generated_Source\PSoC4/PWM.c ****     {
  88              		.loc 1 405 0
  89              		.cfi_startproc
  90              		@ args = 0, pretend = 0, frame = 0
  91              		@ frame_needed = 0, uses_anonymous_args = 0
  92              		@ link register save eliminated.
  93              	.LVL0:
 406:Generated_Source\PSoC4/PWM.c ****         CY_SET_REG8(PWM_COUNTER_LSB_PTR, counter);
  94              		.loc 1 406 0
  95 0000 014B     		ldr	r3, .L8
  96 0002 1870     		strb	r0, [r3]
 407:Generated_Source\PSoC4/PWM.c ****     }
  97              		.loc 1 407 0
  98              		@ sp needed
  99 0004 7047     		bx	lr
 100              	.L9:
 101 0006 C046     		.align	2
 102              	.L8:
 103 0008 03000F40 		.word	1074724867
 104              		.cfi_endproc
 105              	.LFE6:
 106              		.size	PWM_WriteCounter, .-PWM_WriteCounter
ARM GAS  C:\Users\JANUSD~1\AppData\Local\Temp\ccAKEX6L.s 			page 10


 107              		.section	.text.PWM_ReadCounter,"ax",%progbits
 108              		.align	2
 109              		.global	PWM_ReadCounter
 110              		.code	16
 111              		.thumb_func
 112              		.type	PWM_ReadCounter, %function
 113              	PWM_ReadCounter:
 114              	.LFB7:
 408:Generated_Source\PSoC4/PWM.c **** 
 409:Generated_Source\PSoC4/PWM.c **** 
 410:Generated_Source\PSoC4/PWM.c ****     /*******************************************************************************
 411:Generated_Source\PSoC4/PWM.c ****     * Function Name: PWM_ReadCounter
 412:Generated_Source\PSoC4/PWM.c ****     ********************************************************************************
 413:Generated_Source\PSoC4/PWM.c ****     *
 414:Generated_Source\PSoC4/PWM.c ****     * Summary:
 415:Generated_Source\PSoC4/PWM.c ****     *  This function returns the current value of the counter.  It doesn't matter
 416:Generated_Source\PSoC4/PWM.c ****     *  if the counter is enabled or running.
 417:Generated_Source\PSoC4/PWM.c ****     *
 418:Generated_Source\PSoC4/PWM.c ****     * Parameters:
 419:Generated_Source\PSoC4/PWM.c ****     *  None
 420:Generated_Source\PSoC4/PWM.c ****     *
 421:Generated_Source\PSoC4/PWM.c ****     * Return:
 422:Generated_Source\PSoC4/PWM.c ****     *  The current value of the counter.
 423:Generated_Source\PSoC4/PWM.c ****     *
 424:Generated_Source\PSoC4/PWM.c ****     *******************************************************************************/
 425:Generated_Source\PSoC4/PWM.c ****     uint8 PWM_ReadCounter(void) 
 426:Generated_Source\PSoC4/PWM.c ****     {
 115              		.loc 1 426 0
 116              		.cfi_startproc
 117              		@ args = 0, pretend = 0, frame = 0
 118              		@ frame_needed = 0, uses_anonymous_args = 0
 119              		@ link register save eliminated.
 427:Generated_Source\PSoC4/PWM.c ****         /* Force capture by reading Accumulator */
 428:Generated_Source\PSoC4/PWM.c ****         /* Must first do a software capture to be able to read the counter */
 429:Generated_Source\PSoC4/PWM.c ****         /* It is up to the user code to make sure there isn't already captured data in the FIFO */
 430:Generated_Source\PSoC4/PWM.c ****           (void)CY_GET_REG8(PWM_COUNTERCAP_LSB_PTR_8BIT);
 120              		.loc 1 430 0
 121 0000 024B     		ldr	r3, .L11
 122 0002 1B78     		ldrb	r3, [r3]
 431:Generated_Source\PSoC4/PWM.c **** 
 432:Generated_Source\PSoC4/PWM.c ****         /* Read the data from the FIFO */
 433:Generated_Source\PSoC4/PWM.c ****         return (CY_GET_REG8(PWM_CAPTURE_LSB_PTR));
 123              		.loc 1 433 0
 124 0004 024B     		ldr	r3, .L11+4
 125 0006 1878     		ldrb	r0, [r3]
 126 0008 C0B2     		uxtb	r0, r0
 434:Generated_Source\PSoC4/PWM.c ****     }
 127              		.loc 1 434 0
 128              		@ sp needed
 129 000a 7047     		bx	lr
 130              	.L12:
 131              		.align	2
 132              	.L11:
 133 000c 13000F40 		.word	1074724883
 134 0010 53000F40 		.word	1074724947
 135              		.cfi_endproc
 136              	.LFE7:
ARM GAS  C:\Users\JANUSD~1\AppData\Local\Temp\ccAKEX6L.s 			page 11


 137              		.size	PWM_ReadCounter, .-PWM_ReadCounter
 138              		.section	.text.PWM_WritePeriod,"ax",%progbits
 139              		.align	2
 140              		.global	PWM_WritePeriod
 141              		.code	16
 142              		.thumb_func
 143              		.type	PWM_WritePeriod, %function
 144              	PWM_WritePeriod:
 145              	.LFB8:
 435:Generated_Source\PSoC4/PWM.c **** 
 436:Generated_Source\PSoC4/PWM.c ****     #if (PWM_UseStatus)
 437:Generated_Source\PSoC4/PWM.c **** 
 438:Generated_Source\PSoC4/PWM.c **** 
 439:Generated_Source\PSoC4/PWM.c ****         /*******************************************************************************
 440:Generated_Source\PSoC4/PWM.c ****         * Function Name: PWM_ClearFIFO
 441:Generated_Source\PSoC4/PWM.c ****         ********************************************************************************
 442:Generated_Source\PSoC4/PWM.c ****         *
 443:Generated_Source\PSoC4/PWM.c ****         * Summary:
 444:Generated_Source\PSoC4/PWM.c ****         *  This function clears all capture data from the capture FIFO
 445:Generated_Source\PSoC4/PWM.c ****         *
 446:Generated_Source\PSoC4/PWM.c ****         * Parameters:
 447:Generated_Source\PSoC4/PWM.c ****         *  None
 448:Generated_Source\PSoC4/PWM.c ****         *
 449:Generated_Source\PSoC4/PWM.c ****         * Return:
 450:Generated_Source\PSoC4/PWM.c ****         *  None
 451:Generated_Source\PSoC4/PWM.c ****         *
 452:Generated_Source\PSoC4/PWM.c ****         *******************************************************************************/
 453:Generated_Source\PSoC4/PWM.c ****         void PWM_ClearFIFO(void) 
 454:Generated_Source\PSoC4/PWM.c ****         {
 455:Generated_Source\PSoC4/PWM.c ****             while(0u != (PWM_ReadStatusRegister() & PWM_STATUS_FIFONEMPTY))
 456:Generated_Source\PSoC4/PWM.c ****             {
 457:Generated_Source\PSoC4/PWM.c ****                 (void)PWM_ReadCapture();
 458:Generated_Source\PSoC4/PWM.c ****             }
 459:Generated_Source\PSoC4/PWM.c ****         }
 460:Generated_Source\PSoC4/PWM.c **** 
 461:Generated_Source\PSoC4/PWM.c ****     #endif /* PWM_UseStatus */
 462:Generated_Source\PSoC4/PWM.c **** 
 463:Generated_Source\PSoC4/PWM.c **** #endif /* !PWM_UsingFixedFunction */
 464:Generated_Source\PSoC4/PWM.c **** 
 465:Generated_Source\PSoC4/PWM.c **** 
 466:Generated_Source\PSoC4/PWM.c **** /*******************************************************************************
 467:Generated_Source\PSoC4/PWM.c **** * Function Name: PWM_WritePeriod
 468:Generated_Source\PSoC4/PWM.c **** ********************************************************************************
 469:Generated_Source\PSoC4/PWM.c **** *
 470:Generated_Source\PSoC4/PWM.c **** * Summary:
 471:Generated_Source\PSoC4/PWM.c **** *  This function is used to change the period of the counter.  The new period
 472:Generated_Source\PSoC4/PWM.c **** *  will be loaded the next time terminal count is detected.
 473:Generated_Source\PSoC4/PWM.c **** *
 474:Generated_Source\PSoC4/PWM.c **** * Parameters:
 475:Generated_Source\PSoC4/PWM.c **** *  period:  Period value. May be between 1 and (2^Resolution)-1.  A value of 0
 476:Generated_Source\PSoC4/PWM.c **** *           will result in the counter remaining at zero.
 477:Generated_Source\PSoC4/PWM.c **** *
 478:Generated_Source\PSoC4/PWM.c **** * Return:
 479:Generated_Source\PSoC4/PWM.c **** *  None
 480:Generated_Source\PSoC4/PWM.c **** *
 481:Generated_Source\PSoC4/PWM.c **** *******************************************************************************/
 482:Generated_Source\PSoC4/PWM.c **** void PWM_WritePeriod(uint8 period) 
ARM GAS  C:\Users\JANUSD~1\AppData\Local\Temp\ccAKEX6L.s 			page 12


 483:Generated_Source\PSoC4/PWM.c **** {
 146              		.loc 1 483 0
 147              		.cfi_startproc
 148              		@ args = 0, pretend = 0, frame = 0
 149              		@ frame_needed = 0, uses_anonymous_args = 0
 150              		@ link register save eliminated.
 151              	.LVL1:
 484:Generated_Source\PSoC4/PWM.c ****     #if(PWM_UsingFixedFunction)
 485:Generated_Source\PSoC4/PWM.c ****         CY_SET_REG16(PWM_PERIOD_LSB_PTR, (uint16)period);
 486:Generated_Source\PSoC4/PWM.c ****     #else
 487:Generated_Source\PSoC4/PWM.c ****         CY_SET_REG8(PWM_PERIOD_LSB_PTR, period);
 152              		.loc 1 487 0
 153 0000 014B     		ldr	r3, .L14
 154 0002 1870     		strb	r0, [r3]
 488:Generated_Source\PSoC4/PWM.c ****     #endif /* (PWM_UsingFixedFunction) */
 489:Generated_Source\PSoC4/PWM.c **** }
 155              		.loc 1 489 0
 156              		@ sp needed
 157 0004 7047     		bx	lr
 158              	.L15:
 159 0006 C046     		.align	2
 160              	.L14:
 161 0008 43000F40 		.word	1074724931
 162              		.cfi_endproc
 163              	.LFE8:
 164              		.size	PWM_WritePeriod, .-PWM_WritePeriod
 165              		.section	.text.PWM_WriteCompare,"ax",%progbits
 166              		.align	2
 167              		.global	PWM_WriteCompare
 168              		.code	16
 169              		.thumb_func
 170              		.type	PWM_WriteCompare, %function
 171              	PWM_WriteCompare:
 172              	.LFB9:
 490:Generated_Source\PSoC4/PWM.c **** 
 491:Generated_Source\PSoC4/PWM.c **** #if (PWM_UseOneCompareMode)
 492:Generated_Source\PSoC4/PWM.c **** 
 493:Generated_Source\PSoC4/PWM.c **** 
 494:Generated_Source\PSoC4/PWM.c ****     /*******************************************************************************
 495:Generated_Source\PSoC4/PWM.c ****     * Function Name: PWM_WriteCompare
 496:Generated_Source\PSoC4/PWM.c ****     ********************************************************************************
 497:Generated_Source\PSoC4/PWM.c ****     *
 498:Generated_Source\PSoC4/PWM.c ****     * Summary:
 499:Generated_Source\PSoC4/PWM.c ****     *  This funtion is used to change the compare1 value when the PWM is in Dither
 500:Generated_Source\PSoC4/PWM.c ****     *  mode. The compare output will reflect the new value on the next UDB clock.
 501:Generated_Source\PSoC4/PWM.c ****     *  The compare output will be driven high when the present counter value is
 502:Generated_Source\PSoC4/PWM.c ****     *  compared to the compare value based on the compare mode defined in
 503:Generated_Source\PSoC4/PWM.c ****     *  Dither Mode.
 504:Generated_Source\PSoC4/PWM.c ****     *
 505:Generated_Source\PSoC4/PWM.c ****     * Parameters:
 506:Generated_Source\PSoC4/PWM.c ****     *  compare:  New compare value.
 507:Generated_Source\PSoC4/PWM.c ****     *
 508:Generated_Source\PSoC4/PWM.c ****     * Return:
 509:Generated_Source\PSoC4/PWM.c ****     *  None
 510:Generated_Source\PSoC4/PWM.c ****     *
 511:Generated_Source\PSoC4/PWM.c ****     * Side Effects:
 512:Generated_Source\PSoC4/PWM.c ****     *  This function is only available if the PWM mode parameter is set to
ARM GAS  C:\Users\JANUSD~1\AppData\Local\Temp\ccAKEX6L.s 			page 13


 513:Generated_Source\PSoC4/PWM.c ****     *  Dither Mode, Center Aligned Mode or One Output Mode
 514:Generated_Source\PSoC4/PWM.c ****     *
 515:Generated_Source\PSoC4/PWM.c ****     *******************************************************************************/
 516:Generated_Source\PSoC4/PWM.c ****     void PWM_WriteCompare(uint8 compare) \
 517:Generated_Source\PSoC4/PWM.c ****                                        
 518:Generated_Source\PSoC4/PWM.c ****     {
 173              		.loc 1 518 0
 174              		.cfi_startproc
 175              		@ args = 0, pretend = 0, frame = 0
 176              		@ frame_needed = 0, uses_anonymous_args = 0
 177              		@ link register save eliminated.
 178              	.LVL2:
 519:Generated_Source\PSoC4/PWM.c ****         #if(PWM_UsingFixedFunction)
 520:Generated_Source\PSoC4/PWM.c ****             CY_SET_REG16(PWM_COMPARE1_LSB_PTR, (uint16)compare);
 521:Generated_Source\PSoC4/PWM.c ****         #else
 522:Generated_Source\PSoC4/PWM.c ****             CY_SET_REG8(PWM_COMPARE1_LSB_PTR, compare);
 179              		.loc 1 522 0
 180 0000 014B     		ldr	r3, .L17
 181 0002 1870     		strb	r0, [r3]
 523:Generated_Source\PSoC4/PWM.c ****         #endif /* (PWM_UsingFixedFunction) */
 524:Generated_Source\PSoC4/PWM.c **** 
 525:Generated_Source\PSoC4/PWM.c ****         #if (PWM_PWMMode == PWM__B_PWM__DITHER)
 526:Generated_Source\PSoC4/PWM.c ****             #if(PWM_UsingFixedFunction)
 527:Generated_Source\PSoC4/PWM.c ****                 CY_SET_REG16(PWM_COMPARE2_LSB_PTR, (uint16)(compare + 1u));
 528:Generated_Source\PSoC4/PWM.c ****             #else
 529:Generated_Source\PSoC4/PWM.c ****                 CY_SET_REG8(PWM_COMPARE2_LSB_PTR, (compare + 1u));
 530:Generated_Source\PSoC4/PWM.c ****             #endif /* (PWM_UsingFixedFunction) */
 531:Generated_Source\PSoC4/PWM.c ****         #endif /* (PWM_PWMMode == PWM__B_PWM__DITHER) */
 532:Generated_Source\PSoC4/PWM.c ****     }
 182              		.loc 1 532 0
 183              		@ sp needed
 184 0004 7047     		bx	lr
 185              	.L18:
 186 0006 C046     		.align	2
 187              	.L17:
 188 0008 23000F40 		.word	1074724899
 189              		.cfi_endproc
 190              	.LFE9:
 191              		.size	PWM_WriteCompare, .-PWM_WriteCompare
 192              		.section	.text.PWM_Init,"ax",%progbits
 193              		.align	2
 194              		.global	PWM_Init
 195              		.code	16
 196              		.thumb_func
 197              		.type	PWM_Init, %function
 198              	PWM_Init:
 199              	.LFB3:
  85:Generated_Source\PSoC4/PWM.c ****     #if (PWM_UsingFixedFunction || PWM_UseControl)
 200              		.loc 1 85 0
 201              		.cfi_startproc
 202              		@ args = 0, pretend = 0, frame = 0
 203              		@ frame_needed = 0, uses_anonymous_args = 0
 204 0000 10B5     		push	{r4, lr}
 205              		.cfi_def_cfa_offset 8
 206              		.cfi_offset 4, -8
 207              		.cfi_offset 14, -4
 117:Generated_Source\PSoC4/PWM.c ****                 ((uint8)(~PWM_CTRL_CMPMODE1_MASK));
ARM GAS  C:\Users\JANUSD~1\AppData\Local\Temp\ccAKEX6L.s 			page 14


 208              		.loc 1 117 0
 209 0002 0C49     		ldr	r1, .L20
 210 0004 0B78     		ldrb	r3, [r1]
 211 0006 3F22     		movs	r2, #63
 212 0008 9343     		bics	r3, r2
 213              	.LVL3:
 119:Generated_Source\PSoC4/PWM.c ****                                    PWM_DEFAULT_COMPARE1_MODE;
 214              		.loc 1 119 0
 215 000a 0922     		movs	r2, #9
 216 000c 1343     		orrs	r3, r2
 217              	.LVL4:
 218 000e DBB2     		uxtb	r3, r3
 219 0010 0B70     		strb	r3, [r1]
 126:Generated_Source\PSoC4/PWM.c ****         #else /* (PWM_Resolution == 16)*/
 220              		.loc 1 126 0
 221 0012 094A     		ldr	r2, .L20+4
 222 0014 1178     		ldrb	r1, [r2]
 223 0016 0123     		movs	r3, #1
 224 0018 0B43     		orrs	r3, r1
 225 001a DBB2     		uxtb	r3, r3
 226 001c 1370     		strb	r3, [r2]
 133:Generated_Source\PSoC4/PWM.c ****     #endif /* (!PWM_UsingFixedFunction) */
 227              		.loc 1 133 0
 228 001e FF20     		movs	r0, #255
 229 0020 FFF7FEFF 		bl	PWM_WriteCounter
 230              	.LVL5:
 136:Generated_Source\PSoC4/PWM.c **** 
 231              		.loc 1 136 0
 232 0024 FF20     		movs	r0, #255
 233 0026 FFF7FEFF 		bl	PWM_WritePeriod
 234              	.LVL6:
 139:Generated_Source\PSoC4/PWM.c ****         #else
 235              		.loc 1 139 0
 236 002a FF20     		movs	r0, #255
 237 002c FFF7FEFF 		bl	PWM_WriteCompare
 238              	.LVL7:
 179:Generated_Source\PSoC4/PWM.c **** 
 239              		.loc 1 179 0
 240              		@ sp needed
 241 0030 10BD     		pop	{r4, pc}
 242              	.L21:
 243 0032 C046     		.align	2
 244              	.L20:
 245 0034 70000F40 		.word	1074724976
 246 0038 93000F40 		.word	1074725011
 247              		.cfi_endproc
 248              	.LFE3:
 249              		.size	PWM_Init, .-PWM_Init
 250              		.section	.text.PWM_Start,"ax",%progbits
 251              		.align	2
 252              		.global	PWM_Start
 253              		.code	16
 254              		.thumb_func
 255              		.type	PWM_Start, %function
 256              	PWM_Start:
 257              	.LFB2:
  56:Generated_Source\PSoC4/PWM.c ****     /* If not Initialized then initialize all required hardware and software */
ARM GAS  C:\Users\JANUSD~1\AppData\Local\Temp\ccAKEX6L.s 			page 15


 258              		.loc 1 56 0
 259              		.cfi_startproc
 260              		@ args = 0, pretend = 0, frame = 0
 261              		@ frame_needed = 0, uses_anonymous_args = 0
 262 0000 10B5     		push	{r4, lr}
 263              		.cfi_def_cfa_offset 8
 264              		.cfi_offset 4, -8
 265              		.cfi_offset 14, -4
  58:Generated_Source\PSoC4/PWM.c ****     {
 266              		.loc 1 58 0
 267 0002 064B     		ldr	r3, .L24
 268 0004 1B78     		ldrb	r3, [r3]
 269 0006 002B     		cmp	r3, #0
 270 0008 04D1     		bne	.L23
  60:Generated_Source\PSoC4/PWM.c ****         PWM_initVar = 1u;
 271              		.loc 1 60 0
 272 000a FFF7FEFF 		bl	PWM_Init
 273              	.LVL8:
  61:Generated_Source\PSoC4/PWM.c ****     }
 274              		.loc 1 61 0
 275 000e 0122     		movs	r2, #1
 276 0010 024B     		ldr	r3, .L24
 277 0012 1A70     		strb	r2, [r3]
 278              	.L23:
  63:Generated_Source\PSoC4/PWM.c **** 
 279              		.loc 1 63 0
 280 0014 FFF7FEFF 		bl	PWM_Enable
 281              	.LVL9:
  65:Generated_Source\PSoC4/PWM.c **** 
 282              		.loc 1 65 0
 283              		@ sp needed
 284 0018 10BD     		pop	{r4, pc}
 285              	.L25:
 286 001a C046     		.align	2
 287              	.L24:
 288 001c 00000000 		.word	.LANCHOR0
 289              		.cfi_endproc
 290              	.LFE2:
 291              		.size	PWM_Start, .-PWM_Start
 292              		.section	.text.PWM_ReadControlRegister,"ax",%progbits
 293              		.align	2
 294              		.global	PWM_ReadControlRegister
 295              		.code	16
 296              		.thumb_func
 297              		.type	PWM_ReadControlRegister, %function
 298              	PWM_ReadControlRegister:
 299              	.LFB10:
 533:Generated_Source\PSoC4/PWM.c **** 
 534:Generated_Source\PSoC4/PWM.c **** 
 535:Generated_Source\PSoC4/PWM.c **** #else
 536:Generated_Source\PSoC4/PWM.c **** 
 537:Generated_Source\PSoC4/PWM.c **** 
 538:Generated_Source\PSoC4/PWM.c ****     /*******************************************************************************
 539:Generated_Source\PSoC4/PWM.c ****     * Function Name: PWM_WriteCompare1
 540:Generated_Source\PSoC4/PWM.c ****     ********************************************************************************
 541:Generated_Source\PSoC4/PWM.c ****     *
 542:Generated_Source\PSoC4/PWM.c ****     * Summary:
ARM GAS  C:\Users\JANUSD~1\AppData\Local\Temp\ccAKEX6L.s 			page 16


 543:Generated_Source\PSoC4/PWM.c ****     *  This funtion is used to change the compare1 value.  The compare output will
 544:Generated_Source\PSoC4/PWM.c ****     *  reflect the new value on the next UDB clock.  The compare output will be
 545:Generated_Source\PSoC4/PWM.c ****     *  driven high when the present counter value is less than or less than or
 546:Generated_Source\PSoC4/PWM.c ****     *  equal to the compare register, depending on the mode.
 547:Generated_Source\PSoC4/PWM.c ****     *
 548:Generated_Source\PSoC4/PWM.c ****     * Parameters:
 549:Generated_Source\PSoC4/PWM.c ****     *  compare:  New compare value.
 550:Generated_Source\PSoC4/PWM.c ****     *
 551:Generated_Source\PSoC4/PWM.c ****     * Return:
 552:Generated_Source\PSoC4/PWM.c ****     *  None
 553:Generated_Source\PSoC4/PWM.c ****     *
 554:Generated_Source\PSoC4/PWM.c ****     *******************************************************************************/
 555:Generated_Source\PSoC4/PWM.c ****     void PWM_WriteCompare1(uint8 compare) \
 556:Generated_Source\PSoC4/PWM.c ****                                         
 557:Generated_Source\PSoC4/PWM.c ****     {
 558:Generated_Source\PSoC4/PWM.c ****         #if(PWM_UsingFixedFunction)
 559:Generated_Source\PSoC4/PWM.c ****             CY_SET_REG16(PWM_COMPARE1_LSB_PTR, (uint16)compare);
 560:Generated_Source\PSoC4/PWM.c ****         #else
 561:Generated_Source\PSoC4/PWM.c ****             CY_SET_REG8(PWM_COMPARE1_LSB_PTR, compare);
 562:Generated_Source\PSoC4/PWM.c ****         #endif /* (PWM_UsingFixedFunction) */
 563:Generated_Source\PSoC4/PWM.c ****     }
 564:Generated_Source\PSoC4/PWM.c **** 
 565:Generated_Source\PSoC4/PWM.c **** 
 566:Generated_Source\PSoC4/PWM.c ****     /*******************************************************************************
 567:Generated_Source\PSoC4/PWM.c ****     * Function Name: PWM_WriteCompare2
 568:Generated_Source\PSoC4/PWM.c ****     ********************************************************************************
 569:Generated_Source\PSoC4/PWM.c ****     *
 570:Generated_Source\PSoC4/PWM.c ****     * Summary:
 571:Generated_Source\PSoC4/PWM.c ****     *  This funtion is used to change the compare value, for compare1 output.
 572:Generated_Source\PSoC4/PWM.c ****     *  The compare output will reflect the new value on the next UDB clock.
 573:Generated_Source\PSoC4/PWM.c ****     *  The compare output will be driven high when the present counter value is
 574:Generated_Source\PSoC4/PWM.c ****     *  less than or less than or equal to the compare register, depending on the
 575:Generated_Source\PSoC4/PWM.c ****     *  mode.
 576:Generated_Source\PSoC4/PWM.c ****     *
 577:Generated_Source\PSoC4/PWM.c ****     * Parameters:
 578:Generated_Source\PSoC4/PWM.c ****     *  compare:  New compare value.
 579:Generated_Source\PSoC4/PWM.c ****     *
 580:Generated_Source\PSoC4/PWM.c ****     * Return:
 581:Generated_Source\PSoC4/PWM.c ****     *  None
 582:Generated_Source\PSoC4/PWM.c ****     *
 583:Generated_Source\PSoC4/PWM.c ****     *******************************************************************************/
 584:Generated_Source\PSoC4/PWM.c ****     void PWM_WriteCompare2(uint8 compare) \
 585:Generated_Source\PSoC4/PWM.c ****                                         
 586:Generated_Source\PSoC4/PWM.c ****     {
 587:Generated_Source\PSoC4/PWM.c ****         #if(PWM_UsingFixedFunction)
 588:Generated_Source\PSoC4/PWM.c ****             CY_SET_REG16(PWM_COMPARE2_LSB_PTR, compare);
 589:Generated_Source\PSoC4/PWM.c ****         #else
 590:Generated_Source\PSoC4/PWM.c ****             CY_SET_REG8(PWM_COMPARE2_LSB_PTR, compare);
 591:Generated_Source\PSoC4/PWM.c ****         #endif /* (PWM_UsingFixedFunction) */
 592:Generated_Source\PSoC4/PWM.c ****     }
 593:Generated_Source\PSoC4/PWM.c **** #endif /* UseOneCompareMode */
 594:Generated_Source\PSoC4/PWM.c **** 
 595:Generated_Source\PSoC4/PWM.c **** #if (PWM_DeadBandUsed)
 596:Generated_Source\PSoC4/PWM.c **** 
 597:Generated_Source\PSoC4/PWM.c **** 
 598:Generated_Source\PSoC4/PWM.c ****     /*******************************************************************************
 599:Generated_Source\PSoC4/PWM.c ****     * Function Name: PWM_WriteDeadTime
ARM GAS  C:\Users\JANUSD~1\AppData\Local\Temp\ccAKEX6L.s 			page 17


 600:Generated_Source\PSoC4/PWM.c ****     ********************************************************************************
 601:Generated_Source\PSoC4/PWM.c ****     *
 602:Generated_Source\PSoC4/PWM.c ****     * Summary:
 603:Generated_Source\PSoC4/PWM.c ****     *  This function writes the dead-band counts to the corresponding register
 604:Generated_Source\PSoC4/PWM.c ****     *
 605:Generated_Source\PSoC4/PWM.c ****     * Parameters:
 606:Generated_Source\PSoC4/PWM.c ****     *  deadtime:  Number of counts for dead time
 607:Generated_Source\PSoC4/PWM.c ****     *
 608:Generated_Source\PSoC4/PWM.c ****     * Return:
 609:Generated_Source\PSoC4/PWM.c ****     *  None
 610:Generated_Source\PSoC4/PWM.c ****     *
 611:Generated_Source\PSoC4/PWM.c ****     *******************************************************************************/
 612:Generated_Source\PSoC4/PWM.c ****     void PWM_WriteDeadTime(uint8 deadtime) 
 613:Generated_Source\PSoC4/PWM.c ****     {
 614:Generated_Source\PSoC4/PWM.c ****         /* If using the Dead Band 1-255 mode then just write the register */
 615:Generated_Source\PSoC4/PWM.c ****         #if(!PWM_DeadBand2_4)
 616:Generated_Source\PSoC4/PWM.c ****             CY_SET_REG8(PWM_DEADBAND_COUNT_PTR, deadtime);
 617:Generated_Source\PSoC4/PWM.c ****         #else
 618:Generated_Source\PSoC4/PWM.c ****             /* Otherwise the data has to be masked and offset */
 619:Generated_Source\PSoC4/PWM.c ****             /* Clear existing data */
 620:Generated_Source\PSoC4/PWM.c ****             PWM_DEADBAND_COUNT &= ((uint8)(~PWM_DEADBAND_COUNT_MASK));
 621:Generated_Source\PSoC4/PWM.c **** 
 622:Generated_Source\PSoC4/PWM.c ****             /* Set new dead time */
 623:Generated_Source\PSoC4/PWM.c ****             #if(PWM_DEADBAND_COUNT_SHIFT)
 624:Generated_Source\PSoC4/PWM.c ****                 PWM_DEADBAND_COUNT |= ((uint8)((uint8)deadtime << PWM_DEADBAND_COUNT_SHIFT)) &
 625:Generated_Source\PSoC4/PWM.c ****                                                     PWM_DEADBAND_COUNT_MASK;
 626:Generated_Source\PSoC4/PWM.c ****             #else
 627:Generated_Source\PSoC4/PWM.c ****                 PWM_DEADBAND_COUNT |= deadtime & PWM_DEADBAND_COUNT_MASK;
 628:Generated_Source\PSoC4/PWM.c ****             #endif /* (PWM_DEADBAND_COUNT_SHIFT) */
 629:Generated_Source\PSoC4/PWM.c **** 
 630:Generated_Source\PSoC4/PWM.c ****         #endif /* (!PWM_DeadBand2_4) */
 631:Generated_Source\PSoC4/PWM.c ****     }
 632:Generated_Source\PSoC4/PWM.c **** 
 633:Generated_Source\PSoC4/PWM.c **** 
 634:Generated_Source\PSoC4/PWM.c ****     /*******************************************************************************
 635:Generated_Source\PSoC4/PWM.c ****     * Function Name: PWM_ReadDeadTime
 636:Generated_Source\PSoC4/PWM.c ****     ********************************************************************************
 637:Generated_Source\PSoC4/PWM.c ****     *
 638:Generated_Source\PSoC4/PWM.c ****     * Summary:
 639:Generated_Source\PSoC4/PWM.c ****     *  This function reads the dead-band counts from the corresponding register
 640:Generated_Source\PSoC4/PWM.c ****     *
 641:Generated_Source\PSoC4/PWM.c ****     * Parameters:
 642:Generated_Source\PSoC4/PWM.c ****     *  None
 643:Generated_Source\PSoC4/PWM.c ****     *
 644:Generated_Source\PSoC4/PWM.c ****     * Return:
 645:Generated_Source\PSoC4/PWM.c ****     *  Dead Band Counts
 646:Generated_Source\PSoC4/PWM.c ****     *
 647:Generated_Source\PSoC4/PWM.c ****     *******************************************************************************/
 648:Generated_Source\PSoC4/PWM.c ****     uint8 PWM_ReadDeadTime(void) 
 649:Generated_Source\PSoC4/PWM.c ****     {
 650:Generated_Source\PSoC4/PWM.c ****         /* If using the Dead Band 1-255 mode then just read the register */
 651:Generated_Source\PSoC4/PWM.c ****         #if(!PWM_DeadBand2_4)
 652:Generated_Source\PSoC4/PWM.c ****             return (CY_GET_REG8(PWM_DEADBAND_COUNT_PTR));
 653:Generated_Source\PSoC4/PWM.c ****         #else
 654:Generated_Source\PSoC4/PWM.c **** 
 655:Generated_Source\PSoC4/PWM.c ****             /* Otherwise the data has to be masked and offset */
 656:Generated_Source\PSoC4/PWM.c ****             #if(PWM_DEADBAND_COUNT_SHIFT)
ARM GAS  C:\Users\JANUSD~1\AppData\Local\Temp\ccAKEX6L.s 			page 18


 657:Generated_Source\PSoC4/PWM.c ****                 return ((uint8)(((uint8)(PWM_DEADBAND_COUNT & PWM_DEADBAND_COUNT_MASK)) >>
 658:Generated_Source\PSoC4/PWM.c ****                                                                            PWM_DEADBAND_COUNT_SHIFT
 659:Generated_Source\PSoC4/PWM.c ****             #else
 660:Generated_Source\PSoC4/PWM.c ****                 return (PWM_DEADBAND_COUNT & PWM_DEADBAND_COUNT_MASK);
 661:Generated_Source\PSoC4/PWM.c ****             #endif /* (PWM_DEADBAND_COUNT_SHIFT) */
 662:Generated_Source\PSoC4/PWM.c ****         #endif /* (!PWM_DeadBand2_4) */
 663:Generated_Source\PSoC4/PWM.c ****     }
 664:Generated_Source\PSoC4/PWM.c **** #endif /* DeadBandUsed */
 665:Generated_Source\PSoC4/PWM.c **** 
 666:Generated_Source\PSoC4/PWM.c **** #if (PWM_UseStatus || PWM_UsingFixedFunction)
 667:Generated_Source\PSoC4/PWM.c **** 
 668:Generated_Source\PSoC4/PWM.c **** 
 669:Generated_Source\PSoC4/PWM.c ****     /*******************************************************************************
 670:Generated_Source\PSoC4/PWM.c ****     * Function Name: PWM_SetInterruptMode
 671:Generated_Source\PSoC4/PWM.c ****     ********************************************************************************
 672:Generated_Source\PSoC4/PWM.c ****     *
 673:Generated_Source\PSoC4/PWM.c ****     * Summary:
 674:Generated_Source\PSoC4/PWM.c ****     *  This function configures the interrupts mask control of theinterrupt
 675:Generated_Source\PSoC4/PWM.c ****     *  source status register.
 676:Generated_Source\PSoC4/PWM.c ****     *
 677:Generated_Source\PSoC4/PWM.c ****     * Parameters:
 678:Generated_Source\PSoC4/PWM.c ****     *  uint8 interruptMode: Bit field containing the interrupt sources enabled
 679:Generated_Source\PSoC4/PWM.c ****     *
 680:Generated_Source\PSoC4/PWM.c ****     * Return:
 681:Generated_Source\PSoC4/PWM.c ****     *  None
 682:Generated_Source\PSoC4/PWM.c ****     *
 683:Generated_Source\PSoC4/PWM.c ****     *******************************************************************************/
 684:Generated_Source\PSoC4/PWM.c ****     void PWM_SetInterruptMode(uint8 interruptMode) 
 685:Generated_Source\PSoC4/PWM.c ****     {
 686:Generated_Source\PSoC4/PWM.c ****         CY_SET_REG8(PWM_STATUS_MASK_PTR, interruptMode);
 687:Generated_Source\PSoC4/PWM.c ****     }
 688:Generated_Source\PSoC4/PWM.c **** 
 689:Generated_Source\PSoC4/PWM.c **** 
 690:Generated_Source\PSoC4/PWM.c ****     /*******************************************************************************
 691:Generated_Source\PSoC4/PWM.c ****     * Function Name: PWM_ReadStatusRegister
 692:Generated_Source\PSoC4/PWM.c ****     ********************************************************************************
 693:Generated_Source\PSoC4/PWM.c ****     *
 694:Generated_Source\PSoC4/PWM.c ****     * Summary:
 695:Generated_Source\PSoC4/PWM.c ****     *  This function returns the current state of the status register.
 696:Generated_Source\PSoC4/PWM.c ****     *
 697:Generated_Source\PSoC4/PWM.c ****     * Parameters:
 698:Generated_Source\PSoC4/PWM.c ****     *  None
 699:Generated_Source\PSoC4/PWM.c ****     *
 700:Generated_Source\PSoC4/PWM.c ****     * Return:
 701:Generated_Source\PSoC4/PWM.c ****     *  uint8 : Current status register value. The status register bits are:
 702:Generated_Source\PSoC4/PWM.c ****     *  [7:6] : Unused(0)
 703:Generated_Source\PSoC4/PWM.c ****     *  [5]   : Kill event output
 704:Generated_Source\PSoC4/PWM.c ****     *  [4]   : FIFO not empty
 705:Generated_Source\PSoC4/PWM.c ****     *  [3]   : FIFO full
 706:Generated_Source\PSoC4/PWM.c ****     *  [2]   : Terminal count
 707:Generated_Source\PSoC4/PWM.c ****     *  [1]   : Compare output 2
 708:Generated_Source\PSoC4/PWM.c ****     *  [0]   : Compare output 1
 709:Generated_Source\PSoC4/PWM.c ****     *
 710:Generated_Source\PSoC4/PWM.c ****     *******************************************************************************/
 711:Generated_Source\PSoC4/PWM.c ****     uint8 PWM_ReadStatusRegister(void) 
 712:Generated_Source\PSoC4/PWM.c ****     {
 713:Generated_Source\PSoC4/PWM.c ****         return (CY_GET_REG8(PWM_STATUS_PTR));
ARM GAS  C:\Users\JANUSD~1\AppData\Local\Temp\ccAKEX6L.s 			page 19


 714:Generated_Source\PSoC4/PWM.c ****     }
 715:Generated_Source\PSoC4/PWM.c **** 
 716:Generated_Source\PSoC4/PWM.c **** #endif /* (PWM_UseStatus || PWM_UsingFixedFunction) */
 717:Generated_Source\PSoC4/PWM.c **** 
 718:Generated_Source\PSoC4/PWM.c **** 
 719:Generated_Source\PSoC4/PWM.c **** #if (PWM_UseControl)
 720:Generated_Source\PSoC4/PWM.c **** 
 721:Generated_Source\PSoC4/PWM.c **** 
 722:Generated_Source\PSoC4/PWM.c ****     /*******************************************************************************
 723:Generated_Source\PSoC4/PWM.c ****     * Function Name: PWM_ReadControlRegister
 724:Generated_Source\PSoC4/PWM.c ****     ********************************************************************************
 725:Generated_Source\PSoC4/PWM.c ****     *
 726:Generated_Source\PSoC4/PWM.c ****     * Summary:
 727:Generated_Source\PSoC4/PWM.c ****     *  Returns the current state of the control register. This API is available
 728:Generated_Source\PSoC4/PWM.c ****     *  only if the control register is not removed.
 729:Generated_Source\PSoC4/PWM.c ****     *
 730:Generated_Source\PSoC4/PWM.c ****     * Parameters:
 731:Generated_Source\PSoC4/PWM.c ****     *  None
 732:Generated_Source\PSoC4/PWM.c ****     *
 733:Generated_Source\PSoC4/PWM.c ****     * Return:
 734:Generated_Source\PSoC4/PWM.c ****     *  uint8 : Current control register value
 735:Generated_Source\PSoC4/PWM.c ****     *
 736:Generated_Source\PSoC4/PWM.c ****     *******************************************************************************/
 737:Generated_Source\PSoC4/PWM.c ****     uint8 PWM_ReadControlRegister(void) 
 738:Generated_Source\PSoC4/PWM.c ****     {
 300              		.loc 1 738 0
 301              		.cfi_startproc
 302              		@ args = 0, pretend = 0, frame = 0
 303              		@ frame_needed = 0, uses_anonymous_args = 0
 304              		@ link register save eliminated.
 739:Generated_Source\PSoC4/PWM.c ****         uint8 result;
 740:Generated_Source\PSoC4/PWM.c **** 
 741:Generated_Source\PSoC4/PWM.c ****         result = CY_GET_REG8(PWM_CONTROL_PTR);
 305              		.loc 1 741 0
 306 0000 014B     		ldr	r3, .L27
 307 0002 1878     		ldrb	r0, [r3]
 308 0004 C0B2     		uxtb	r0, r0
 309              	.LVL10:
 742:Generated_Source\PSoC4/PWM.c ****         return (result);
 743:Generated_Source\PSoC4/PWM.c ****     }
 310              		.loc 1 743 0
 311              		@ sp needed
 312 0006 7047     		bx	lr
 313              	.L28:
 314              		.align	2
 315              	.L27:
 316 0008 70000F40 		.word	1074724976
 317              		.cfi_endproc
 318              	.LFE10:
 319              		.size	PWM_ReadControlRegister, .-PWM_ReadControlRegister
 320              		.section	.text.PWM_WriteControlRegister,"ax",%progbits
 321              		.align	2
 322              		.global	PWM_WriteControlRegister
 323              		.code	16
 324              		.thumb_func
 325              		.type	PWM_WriteControlRegister, %function
 326              	PWM_WriteControlRegister:
ARM GAS  C:\Users\JANUSD~1\AppData\Local\Temp\ccAKEX6L.s 			page 20


 327              	.LFB11:
 744:Generated_Source\PSoC4/PWM.c **** 
 745:Generated_Source\PSoC4/PWM.c **** 
 746:Generated_Source\PSoC4/PWM.c ****     /*******************************************************************************
 747:Generated_Source\PSoC4/PWM.c ****     * Function Name: PWM_WriteControlRegister
 748:Generated_Source\PSoC4/PWM.c ****     ********************************************************************************
 749:Generated_Source\PSoC4/PWM.c ****     *
 750:Generated_Source\PSoC4/PWM.c ****     * Summary:
 751:Generated_Source\PSoC4/PWM.c ****     *  Sets the bit field of the control register. This API is available only if
 752:Generated_Source\PSoC4/PWM.c ****     *  the control register is not removed.
 753:Generated_Source\PSoC4/PWM.c ****     *
 754:Generated_Source\PSoC4/PWM.c ****     * Parameters:
 755:Generated_Source\PSoC4/PWM.c ****     *  uint8 control: Control register bit field, The status register bits are:
 756:Generated_Source\PSoC4/PWM.c ****     *  [7]   : PWM Enable
 757:Generated_Source\PSoC4/PWM.c ****     *  [6]   : Reset
 758:Generated_Source\PSoC4/PWM.c ****     *  [5:3] : Compare Mode2
 759:Generated_Source\PSoC4/PWM.c ****     *  [2:0] : Compare Mode2
 760:Generated_Source\PSoC4/PWM.c ****     *
 761:Generated_Source\PSoC4/PWM.c ****     * Return:
 762:Generated_Source\PSoC4/PWM.c ****     *  None
 763:Generated_Source\PSoC4/PWM.c ****     *
 764:Generated_Source\PSoC4/PWM.c ****     *******************************************************************************/
 765:Generated_Source\PSoC4/PWM.c ****     void PWM_WriteControlRegister(uint8 control) 
 766:Generated_Source\PSoC4/PWM.c ****     {
 328              		.loc 1 766 0
 329              		.cfi_startproc
 330              		@ args = 0, pretend = 0, frame = 0
 331              		@ frame_needed = 0, uses_anonymous_args = 0
 332              		@ link register save eliminated.
 333              	.LVL11:
 767:Generated_Source\PSoC4/PWM.c ****         CY_SET_REG8(PWM_CONTROL_PTR, control);
 334              		.loc 1 767 0
 335 0000 014B     		ldr	r3, .L30
 336 0002 1870     		strb	r0, [r3]
 768:Generated_Source\PSoC4/PWM.c ****     }
 337              		.loc 1 768 0
 338              		@ sp needed
 339 0004 7047     		bx	lr
 340              	.L31:
 341 0006 C046     		.align	2
 342              	.L30:
 343 0008 70000F40 		.word	1074724976
 344              		.cfi_endproc
 345              	.LFE11:
 346              		.size	PWM_WriteControlRegister, .-PWM_WriteControlRegister
 347              		.section	.text.PWM_ReadCapture,"ax",%progbits
 348              		.align	2
 349              		.global	PWM_ReadCapture
 350              		.code	16
 351              		.thumb_func
 352              		.type	PWM_ReadCapture, %function
 353              	PWM_ReadCapture:
 354              	.LFB12:
 769:Generated_Source\PSoC4/PWM.c **** 
 770:Generated_Source\PSoC4/PWM.c **** #endif /* (PWM_UseControl) */
 771:Generated_Source\PSoC4/PWM.c **** 
 772:Generated_Source\PSoC4/PWM.c **** 
ARM GAS  C:\Users\JANUSD~1\AppData\Local\Temp\ccAKEX6L.s 			page 21


 773:Generated_Source\PSoC4/PWM.c **** #if (!PWM_UsingFixedFunction)
 774:Generated_Source\PSoC4/PWM.c **** 
 775:Generated_Source\PSoC4/PWM.c **** 
 776:Generated_Source\PSoC4/PWM.c ****     /*******************************************************************************
 777:Generated_Source\PSoC4/PWM.c ****     * Function Name: PWM_ReadCapture
 778:Generated_Source\PSoC4/PWM.c ****     ********************************************************************************
 779:Generated_Source\PSoC4/PWM.c ****     *
 780:Generated_Source\PSoC4/PWM.c ****     * Summary:
 781:Generated_Source\PSoC4/PWM.c ****     *  Reads the capture value from the capture FIFO.
 782:Generated_Source\PSoC4/PWM.c ****     *
 783:Generated_Source\PSoC4/PWM.c ****     * Parameters:
 784:Generated_Source\PSoC4/PWM.c ****     *  None
 785:Generated_Source\PSoC4/PWM.c ****     *
 786:Generated_Source\PSoC4/PWM.c ****     * Return:
 787:Generated_Source\PSoC4/PWM.c ****     *  uint8/uint16: The current capture value
 788:Generated_Source\PSoC4/PWM.c ****     *
 789:Generated_Source\PSoC4/PWM.c ****     *******************************************************************************/
 790:Generated_Source\PSoC4/PWM.c ****     uint8 PWM_ReadCapture(void) 
 791:Generated_Source\PSoC4/PWM.c ****     {
 355              		.loc 1 791 0
 356              		.cfi_startproc
 357              		@ args = 0, pretend = 0, frame = 0
 358              		@ frame_needed = 0, uses_anonymous_args = 0
 359              		@ link register save eliminated.
 792:Generated_Source\PSoC4/PWM.c ****         return (CY_GET_REG8(PWM_CAPTURE_LSB_PTR));
 360              		.loc 1 792 0
 361 0000 014B     		ldr	r3, .L33
 362 0002 1878     		ldrb	r0, [r3]
 363 0004 C0B2     		uxtb	r0, r0
 793:Generated_Source\PSoC4/PWM.c ****     }
 364              		.loc 1 793 0
 365              		@ sp needed
 366 0006 7047     		bx	lr
 367              	.L34:
 368              		.align	2
 369              	.L33:
 370 0008 53000F40 		.word	1074724947
 371              		.cfi_endproc
 372              	.LFE12:
 373              		.size	PWM_ReadCapture, .-PWM_ReadCapture
 374              		.section	.text.PWM_ReadCompare,"ax",%progbits
 375              		.align	2
 376              		.global	PWM_ReadCompare
 377              		.code	16
 378              		.thumb_func
 379              		.type	PWM_ReadCompare, %function
 380              	PWM_ReadCompare:
 381              	.LFB13:
 794:Generated_Source\PSoC4/PWM.c **** 
 795:Generated_Source\PSoC4/PWM.c **** #endif /* (!PWM_UsingFixedFunction) */
 796:Generated_Source\PSoC4/PWM.c **** 
 797:Generated_Source\PSoC4/PWM.c **** 
 798:Generated_Source\PSoC4/PWM.c **** #if (PWM_UseOneCompareMode)
 799:Generated_Source\PSoC4/PWM.c **** 
 800:Generated_Source\PSoC4/PWM.c **** 
 801:Generated_Source\PSoC4/PWM.c ****     /*******************************************************************************
 802:Generated_Source\PSoC4/PWM.c ****     * Function Name: PWM_ReadCompare
ARM GAS  C:\Users\JANUSD~1\AppData\Local\Temp\ccAKEX6L.s 			page 22


 803:Generated_Source\PSoC4/PWM.c ****     ********************************************************************************
 804:Generated_Source\PSoC4/PWM.c ****     *
 805:Generated_Source\PSoC4/PWM.c ****     * Summary:
 806:Generated_Source\PSoC4/PWM.c ****     *  Reads the compare value for the compare output when the PWM Mode parameter is
 807:Generated_Source\PSoC4/PWM.c ****     *  set to Dither mode, Center Aligned mode, or One Output mode.
 808:Generated_Source\PSoC4/PWM.c ****     *
 809:Generated_Source\PSoC4/PWM.c ****     * Parameters:
 810:Generated_Source\PSoC4/PWM.c ****     *  None
 811:Generated_Source\PSoC4/PWM.c ****     *
 812:Generated_Source\PSoC4/PWM.c ****     * Return:
 813:Generated_Source\PSoC4/PWM.c ****     *  uint8/uint16: Current compare value
 814:Generated_Source\PSoC4/PWM.c ****     *
 815:Generated_Source\PSoC4/PWM.c ****     *******************************************************************************/
 816:Generated_Source\PSoC4/PWM.c ****     uint8 PWM_ReadCompare(void) 
 817:Generated_Source\PSoC4/PWM.c ****     {
 382              		.loc 1 817 0
 383              		.cfi_startproc
 384              		@ args = 0, pretend = 0, frame = 0
 385              		@ frame_needed = 0, uses_anonymous_args = 0
 386              		@ link register save eliminated.
 818:Generated_Source\PSoC4/PWM.c ****         #if(PWM_UsingFixedFunction)
 819:Generated_Source\PSoC4/PWM.c ****             return ((uint8)CY_GET_REG16(PWM_COMPARE1_LSB_PTR));
 820:Generated_Source\PSoC4/PWM.c ****         #else
 821:Generated_Source\PSoC4/PWM.c ****             return (CY_GET_REG8(PWM_COMPARE1_LSB_PTR));
 387              		.loc 1 821 0
 388 0000 014B     		ldr	r3, .L36
 389 0002 1878     		ldrb	r0, [r3]
 390 0004 C0B2     		uxtb	r0, r0
 822:Generated_Source\PSoC4/PWM.c ****         #endif /* (PWM_UsingFixedFunction) */
 823:Generated_Source\PSoC4/PWM.c ****     }
 391              		.loc 1 823 0
 392              		@ sp needed
 393 0006 7047     		bx	lr
 394              	.L37:
 395              		.align	2
 396              	.L36:
 397 0008 23000F40 		.word	1074724899
 398              		.cfi_endproc
 399              	.LFE13:
 400              		.size	PWM_ReadCompare, .-PWM_ReadCompare
 401              		.section	.text.PWM_ReadPeriod,"ax",%progbits
 402              		.align	2
 403              		.global	PWM_ReadPeriod
 404              		.code	16
 405              		.thumb_func
 406              		.type	PWM_ReadPeriod, %function
 407              	PWM_ReadPeriod:
 408              	.LFB14:
 824:Generated_Source\PSoC4/PWM.c **** 
 825:Generated_Source\PSoC4/PWM.c **** #else
 826:Generated_Source\PSoC4/PWM.c **** 
 827:Generated_Source\PSoC4/PWM.c **** 
 828:Generated_Source\PSoC4/PWM.c ****     /*******************************************************************************
 829:Generated_Source\PSoC4/PWM.c ****     * Function Name: PWM_ReadCompare1
 830:Generated_Source\PSoC4/PWM.c ****     ********************************************************************************
 831:Generated_Source\PSoC4/PWM.c ****     *
 832:Generated_Source\PSoC4/PWM.c ****     * Summary:
ARM GAS  C:\Users\JANUSD~1\AppData\Local\Temp\ccAKEX6L.s 			page 23


 833:Generated_Source\PSoC4/PWM.c ****     *  Reads the compare value for the compare1 output.
 834:Generated_Source\PSoC4/PWM.c ****     *
 835:Generated_Source\PSoC4/PWM.c ****     * Parameters:
 836:Generated_Source\PSoC4/PWM.c ****     *  None
 837:Generated_Source\PSoC4/PWM.c ****     *
 838:Generated_Source\PSoC4/PWM.c ****     * Return:
 839:Generated_Source\PSoC4/PWM.c ****     *  uint8/uint16: Current compare value.
 840:Generated_Source\PSoC4/PWM.c ****     *
 841:Generated_Source\PSoC4/PWM.c ****     *******************************************************************************/
 842:Generated_Source\PSoC4/PWM.c ****     uint8 PWM_ReadCompare1(void) 
 843:Generated_Source\PSoC4/PWM.c ****     {
 844:Generated_Source\PSoC4/PWM.c ****         return (CY_GET_REG8(PWM_COMPARE1_LSB_PTR));
 845:Generated_Source\PSoC4/PWM.c ****     }
 846:Generated_Source\PSoC4/PWM.c **** 
 847:Generated_Source\PSoC4/PWM.c **** 
 848:Generated_Source\PSoC4/PWM.c ****     /*******************************************************************************
 849:Generated_Source\PSoC4/PWM.c ****     * Function Name: PWM_ReadCompare2
 850:Generated_Source\PSoC4/PWM.c ****     ********************************************************************************
 851:Generated_Source\PSoC4/PWM.c ****     *
 852:Generated_Source\PSoC4/PWM.c ****     * Summary:
 853:Generated_Source\PSoC4/PWM.c ****     *  Reads the compare value for the compare2 output.
 854:Generated_Source\PSoC4/PWM.c ****     *
 855:Generated_Source\PSoC4/PWM.c ****     * Parameters:
 856:Generated_Source\PSoC4/PWM.c ****     *  None
 857:Generated_Source\PSoC4/PWM.c ****     *
 858:Generated_Source\PSoC4/PWM.c ****     * Return:
 859:Generated_Source\PSoC4/PWM.c ****     *  uint8/uint16: Current compare value.
 860:Generated_Source\PSoC4/PWM.c ****     *
 861:Generated_Source\PSoC4/PWM.c ****     *******************************************************************************/
 862:Generated_Source\PSoC4/PWM.c ****     uint8 PWM_ReadCompare2(void) 
 863:Generated_Source\PSoC4/PWM.c ****     {
 864:Generated_Source\PSoC4/PWM.c ****         return (CY_GET_REG8(PWM_COMPARE2_LSB_PTR));
 865:Generated_Source\PSoC4/PWM.c ****     }
 866:Generated_Source\PSoC4/PWM.c **** 
 867:Generated_Source\PSoC4/PWM.c **** #endif /* (PWM_UseOneCompareMode) */
 868:Generated_Source\PSoC4/PWM.c **** 
 869:Generated_Source\PSoC4/PWM.c **** 
 870:Generated_Source\PSoC4/PWM.c **** /*******************************************************************************
 871:Generated_Source\PSoC4/PWM.c **** * Function Name: PWM_ReadPeriod
 872:Generated_Source\PSoC4/PWM.c **** ********************************************************************************
 873:Generated_Source\PSoC4/PWM.c **** *
 874:Generated_Source\PSoC4/PWM.c **** * Summary:
 875:Generated_Source\PSoC4/PWM.c **** *  Reads the period value used by the PWM hardware.
 876:Generated_Source\PSoC4/PWM.c **** *
 877:Generated_Source\PSoC4/PWM.c **** * Parameters:
 878:Generated_Source\PSoC4/PWM.c **** *  None
 879:Generated_Source\PSoC4/PWM.c **** *
 880:Generated_Source\PSoC4/PWM.c **** * Return:
 881:Generated_Source\PSoC4/PWM.c **** *  uint8/16: Period value
 882:Generated_Source\PSoC4/PWM.c **** *
 883:Generated_Source\PSoC4/PWM.c **** *******************************************************************************/
 884:Generated_Source\PSoC4/PWM.c **** uint8 PWM_ReadPeriod(void) 
 885:Generated_Source\PSoC4/PWM.c **** {
 409              		.loc 1 885 0
 410              		.cfi_startproc
 411              		@ args = 0, pretend = 0, frame = 0
 412              		@ frame_needed = 0, uses_anonymous_args = 0
ARM GAS  C:\Users\JANUSD~1\AppData\Local\Temp\ccAKEX6L.s 			page 24


 413              		@ link register save eliminated.
 886:Generated_Source\PSoC4/PWM.c ****     #if(PWM_UsingFixedFunction)
 887:Generated_Source\PSoC4/PWM.c ****         return ((uint8)CY_GET_REG16(PWM_PERIOD_LSB_PTR));
 888:Generated_Source\PSoC4/PWM.c ****     #else
 889:Generated_Source\PSoC4/PWM.c ****         return (CY_GET_REG8(PWM_PERIOD_LSB_PTR));
 414              		.loc 1 889 0
 415 0000 014B     		ldr	r3, .L39
 416 0002 1878     		ldrb	r0, [r3]
 417 0004 C0B2     		uxtb	r0, r0
 890:Generated_Source\PSoC4/PWM.c ****     #endif /* (PWM_UsingFixedFunction) */
 891:Generated_Source\PSoC4/PWM.c **** }
 418              		.loc 1 891 0
 419              		@ sp needed
 420 0006 7047     		bx	lr
 421              	.L40:
 422              		.align	2
 423              	.L39:
 424 0008 43000F40 		.word	1074724931
 425              		.cfi_endproc
 426              	.LFE14:
 427              		.size	PWM_ReadPeriod, .-PWM_ReadPeriod
 428              		.global	PWM_initVar
 429              		.bss
 430              		.set	.LANCHOR0,. + 0
 431              		.type	PWM_initVar, %object
 432              		.size	PWM_initVar, 1
 433              	PWM_initVar:
 434 0000 00       		.space	1
 435              		.text
 436              	.Letext0:
 437              		.file 2 "Generated_Source\\PSoC4\\cytypes.h"